
kernel.elf:     file format elf32-littlearm


Disassembly of section .start_sec:

00010000 <_start>:
   10000:	e59f1030 	ldr	r1, [pc, #48]	; 10038 <jump_stack+0x10>
   10004:	e59f2030 	ldr	r2, [pc, #48]	; 1003c <jump_stack+0x14>
   10008:	e3a03000 	mov	r3, #0
   1000c:	e1510002 	cmp	r1, r2
   10010:	b8a10008 	stmialt	r1!, {r3}
   10014:	bafffffc 	blt	1000c <_start+0xc>
   10018:	e32ff0d3 	msr	CPSR_fsxc, #211	; 0xd3
   1001c:	e59fd01c 	ldr	sp, [pc, #28]	; 10040 <jump_stack+0x18>
   10020:	eb0000f7 	bl	10404 <start>
   10024:	eafffffe 	b	10024 <_start+0x24>

00010028 <jump_stack>:
   10028:	e1a0000d 	mov	r0, sp
   1002c:	e2800102 	add	r0, r0, #-2147483648	; 0x80000000
   10030:	e1a0d000 	mov	sp, r0
   10034:	e1a0f00e 	mov	pc, lr
   10038:	00010568 	.word	0x00010568
   1003c:	00019000 	.word	0x00019000
   10040:	00012000 	.word	0x00012000

00010044 <_uart_putc>:
   10044:	e52db004 	push	{fp}		; (str fp, [sp, #-4]!)
   10048:	e28db000 	add	fp, sp, #0
   1004c:	e24dd014 	sub	sp, sp, #20
   10050:	e50b0010 	str	r0, [fp, #-16]
   10054:	e59f3020 	ldr	r3, [pc, #32]	; 1007c <_uart_putc+0x38>
   10058:	e50b3008 	str	r3, [fp, #-8]
   1005c:	e51b3010 	ldr	r3, [fp, #-16]
   10060:	e6ef2073 	uxtb	r2, r3
   10064:	e51b3008 	ldr	r3, [fp, #-8]
   10068:	e5c32000 	strb	r2, [r3]
   1006c:	e1a00000 	nop			; (mov r0, r0)
   10070:	e28bd000 	add	sp, fp, #0
   10074:	e49db004 	pop	{fp}		; (ldr fp, [sp], #4)
   10078:	e12fff1e 	bx	lr
   1007c:	101f1000 	.word	0x101f1000

00010080 <_puts>:
   10080:	e92d4800 	push	{fp, lr}
   10084:	e28db004 	add	fp, sp, #4
   10088:	e24dd008 	sub	sp, sp, #8
   1008c:	e50b0008 	str	r0, [fp, #-8]
   10090:	ea000006 	b	100b0 <_puts+0x30>
   10094:	e51b3008 	ldr	r3, [fp, #-8]
   10098:	e5d33000 	ldrb	r3, [r3]
   1009c:	e1a00003 	mov	r0, r3
   100a0:	ebffffe7 	bl	10044 <_uart_putc>
   100a4:	e51b3008 	ldr	r3, [fp, #-8]
   100a8:	e2833001 	add	r3, r3, #1
   100ac:	e50b3008 	str	r3, [fp, #-8]
   100b0:	e51b3008 	ldr	r3, [fp, #-8]
   100b4:	e5d33000 	ldrb	r3, [r3]
   100b8:	e3530000 	cmp	r3, #0
   100bc:	1afffff4 	bne	10094 <_puts+0x14>
   100c0:	e1a00000 	nop			; (mov r0, r0)
   100c4:	e24bd004 	sub	sp, fp, #4
   100c8:	e8bd8800 	pop	{fp, pc}

000100cc <_putint>:
   100cc:	e92d4800 	push	{fp, lr}
   100d0:	e28db004 	add	fp, sp, #4
   100d4:	e24dd018 	sub	sp, sp, #24
   100d8:	e50b0010 	str	r0, [fp, #-16]
   100dc:	e50b1014 	str	r1, [fp, #-20]	; 0xffffffec
   100e0:	e50b2018 	str	r2, [fp, #-24]	; 0xffffffe8
   100e4:	e59f307c 	ldr	r3, [pc, #124]	; 10168 <_putint+0x9c>
   100e8:	e50b300c 	str	r3, [fp, #-12]
   100ec:	e51b3010 	ldr	r3, [fp, #-16]
   100f0:	e3530000 	cmp	r3, #0
   100f4:	0a000001 	beq	10100 <_putint+0x34>
   100f8:	e51b0010 	ldr	r0, [fp, #-16]
   100fc:	ebffffdf 	bl	10080 <_puts>
   10100:	e3a0301c 	mov	r3, #28
   10104:	e50b3008 	str	r3, [fp, #-8]
   10108:	ea00000b 	b	1013c <_putint+0x70>
   1010c:	e51b2014 	ldr	r2, [fp, #-20]	; 0xffffffec
   10110:	e51b3008 	ldr	r3, [fp, #-8]
   10114:	e1a03332 	lsr	r3, r2, r3
   10118:	e203300f 	and	r3, r3, #15
   1011c:	e51b200c 	ldr	r2, [fp, #-12]
   10120:	e0823003 	add	r3, r2, r3
   10124:	e5d33000 	ldrb	r3, [r3]
   10128:	e1a00003 	mov	r0, r3
   1012c:	ebffffc4 	bl	10044 <_uart_putc>
   10130:	e51b3008 	ldr	r3, [fp, #-8]
   10134:	e2433004 	sub	r3, r3, #4
   10138:	e50b3008 	str	r3, [fp, #-8]
   1013c:	e51b3008 	ldr	r3, [fp, #-8]
   10140:	e3530000 	cmp	r3, #0
   10144:	aafffff0 	bge	1010c <_putint+0x40>
   10148:	e51b3018 	ldr	r3, [fp, #-24]	; 0xffffffe8
   1014c:	e3530000 	cmp	r3, #0
   10150:	0a000001 	beq	1015c <_putint+0x90>
   10154:	e51b0018 	ldr	r0, [fp, #-24]	; 0xffffffe8
   10158:	ebffffc8 	bl	10080 <_puts>
   1015c:	e1a00000 	nop			; (mov r0, r0)
   10160:	e24bd004 	sub	sp, fp, #4
   10164:	e8bd8800 	pop	{fp, pc}
   10168:	000104f0 	.word	0x000104f0

0001016c <get_pde>:
   1016c:	e52db004 	push	{fp}		; (str fp, [sp, #-4]!)
   10170:	e28db000 	add	fp, sp, #0
   10174:	e24dd00c 	sub	sp, sp, #12
   10178:	e50b0008 	str	r0, [fp, #-8]
   1017c:	e51b3008 	ldr	r3, [fp, #-8]
   10180:	e1a03a23 	lsr	r3, r3, #20
   10184:	e50b3008 	str	r3, [fp, #-8]
   10188:	e59f3020 	ldr	r3, [pc, #32]	; 101b0 <get_pde+0x44>
   1018c:	e5932000 	ldr	r2, [r3]
   10190:	e51b3008 	ldr	r3, [fp, #-8]
   10194:	e1a03103 	lsl	r3, r3, #2
   10198:	e0823003 	add	r3, r2, r3
   1019c:	e5933000 	ldr	r3, [r3]
   101a0:	e1a00003 	mov	r0, r3
   101a4:	e28bd000 	add	sp, fp, #0
   101a8:	e49db004 	pop	{fp}		; (ldr fp, [sp], #4)
   101ac:	e12fff1e 	bx	lr
   101b0:	00010560 	.word	0x00010560

000101b4 <set_bootpgtbl>:
   101b4:	e52db004 	push	{fp}		; (str fp, [sp, #-4]!)
   101b8:	e28db000 	add	fp, sp, #0
   101bc:	e24dd01c 	sub	sp, sp, #28
   101c0:	e50b0010 	str	r0, [fp, #-16]
   101c4:	e50b1014 	str	r1, [fp, #-20]	; 0xffffffec
   101c8:	e50b2018 	str	r2, [fp, #-24]	; 0xffffffe8
   101cc:	e50b301c 	str	r3, [fp, #-28]	; 0xffffffe4
   101d0:	e51b3010 	ldr	r3, [fp, #-16]
   101d4:	e1a03a23 	lsr	r3, r3, #20
   101d8:	e50b3010 	str	r3, [fp, #-16]
   101dc:	e51b3014 	ldr	r3, [fp, #-20]	; 0xffffffec
   101e0:	e1a03a23 	lsr	r3, r3, #20
   101e4:	e50b3014 	str	r3, [fp, #-20]	; 0xffffffec
   101e8:	e51b3018 	ldr	r3, [fp, #-24]	; 0xffffffe8
   101ec:	e1a03a23 	lsr	r3, r3, #20
   101f0:	e50b3018 	str	r3, [fp, #-24]	; 0xffffffe8
   101f4:	e3a03000 	mov	r3, #0
   101f8:	e50b300c 	str	r3, [fp, #-12]
   101fc:	ea000029 	b	102a8 <set_bootpgtbl+0xf4>
   10200:	e51b3014 	ldr	r3, [fp, #-20]	; 0xffffffec
   10204:	e1a03a03 	lsl	r3, r3, #20
   10208:	e50b3008 	str	r3, [fp, #-8]
   1020c:	e51b301c 	ldr	r3, [fp, #-28]	; 0xffffffe4
   10210:	e3530000 	cmp	r3, #0
   10214:	1a000004 	bne	1022c <set_bootpgtbl+0x78>
   10218:	e51b3008 	ldr	r3, [fp, #-8]
   1021c:	e3833b01 	orr	r3, r3, #1024	; 0x400
   10220:	e383300e 	orr	r3, r3, #14
   10224:	e50b3008 	str	r3, [fp, #-8]
   10228:	ea000003 	b	1023c <set_bootpgtbl+0x88>
   1022c:	e51b3008 	ldr	r3, [fp, #-8]
   10230:	e3833b01 	orr	r3, r3, #1024	; 0x400
   10234:	e3833002 	orr	r3, r3, #2
   10238:	e50b3008 	str	r3, [fp, #-8]
   1023c:	e51b3010 	ldr	r3, [fp, #-16]
   10240:	e35300ff 	cmp	r3, #255	; 0xff
   10244:	8a000007 	bhi	10268 <set_bootpgtbl+0xb4>
   10248:	e59f3078 	ldr	r3, [pc, #120]	; 102c8 <set_bootpgtbl+0x114>
   1024c:	e5932000 	ldr	r2, [r3]
   10250:	e51b3010 	ldr	r3, [fp, #-16]
   10254:	e1a03103 	lsl	r3, r3, #2
   10258:	e0823003 	add	r3, r2, r3
   1025c:	e51b2008 	ldr	r2, [fp, #-8]
   10260:	e5832000 	str	r2, [r3]
   10264:	ea000006 	b	10284 <set_bootpgtbl+0xd0>
   10268:	e59f305c 	ldr	r3, [pc, #92]	; 102cc <set_bootpgtbl+0x118>
   1026c:	e5932000 	ldr	r2, [r3]
   10270:	e51b3010 	ldr	r3, [fp, #-16]
   10274:	e1a03103 	lsl	r3, r3, #2
   10278:	e0823003 	add	r3, r2, r3
   1027c:	e51b2008 	ldr	r2, [fp, #-8]
   10280:	e5832000 	str	r2, [r3]
   10284:	e51b3010 	ldr	r3, [fp, #-16]
   10288:	e2833001 	add	r3, r3, #1
   1028c:	e50b3010 	str	r3, [fp, #-16]
   10290:	e51b3014 	ldr	r3, [fp, #-20]	; 0xffffffec
   10294:	e2833001 	add	r3, r3, #1
   10298:	e50b3014 	str	r3, [fp, #-20]	; 0xffffffec
   1029c:	e51b300c 	ldr	r3, [fp, #-12]
   102a0:	e2833001 	add	r3, r3, #1
   102a4:	e50b300c 	str	r3, [fp, #-12]
   102a8:	e51b300c 	ldr	r3, [fp, #-12]
   102ac:	e51b2018 	ldr	r2, [fp, #-24]	; 0xffffffe8
   102b0:	e1520003 	cmp	r2, r3
   102b4:	8affffd1 	bhi	10200 <set_bootpgtbl+0x4c>
   102b8:	e1a00000 	nop			; (mov r0, r0)
   102bc:	e28bd000 	add	sp, fp, #0
   102c0:	e49db004 	pop	{fp}		; (ldr fp, [sp], #4)
   102c4:	e12fff1e 	bx	lr
   102c8:	00010564 	.word	0x00010564
   102cc:	00010560 	.word	0x00010560

000102d0 <_flush_all>:
   102d0:	e52db004 	push	{fp}		; (str fp, [sp, #-4]!)
   102d4:	e28db000 	add	fp, sp, #0
   102d8:	e24dd00c 	sub	sp, sp, #12
   102dc:	e3a03000 	mov	r3, #0
   102e0:	e50b3008 	str	r3, [fp, #-8]
   102e4:	e51b3008 	ldr	r3, [fp, #-8]
   102e8:	ee083f17 	mcr	15, 0, r3, cr8, cr7, {0}
   102ec:	e1a00000 	nop			; (mov r0, r0)
   102f0:	e28bd000 	add	sp, fp, #0
   102f4:	e49db004 	pop	{fp}		; (ldr fp, [sp], #4)
   102f8:	e12fff1e 	bx	lr

000102fc <load_pgtlb>:
   102fc:	e92d4800 	push	{fp, lr}
   10300:	e28db004 	add	fp, sp, #4
   10304:	e24dd018 	sub	sp, sp, #24
   10308:	e50b0018 	str	r0, [fp, #-24]	; 0xffffffe8
   1030c:	e50b101c 	str	r1, [fp, #-28]	; 0xffffffe4
   10310:	ee103f10 	mrc	15, 0, r3, cr0, cr0, {0}
   10314:	e50b3008 	str	r3, [fp, #-8]
   10318:	e51b3008 	ldr	r3, [fp, #-8]
   1031c:	e1a03823 	lsr	r3, r3, #16
   10320:	e6ef3073 	uxtb	r3, r3
   10324:	e203300f 	and	r3, r3, #15
   10328:	e54b3009 	strb	r3, [fp, #-9]
   1032c:	e55b3009 	ldrb	r3, [fp, #-9]
   10330:	e3530007 	cmp	r3, #7
   10334:	0a000004 	beq	1034c <load_pgtlb+0x50>
   10338:	e55b3009 	ldrb	r3, [fp, #-9]
   1033c:	e353000f 	cmp	r3, #15
   10340:	0a000001 	beq	1034c <load_pgtlb+0x50>
   10344:	e59f0074 	ldr	r0, [pc, #116]	; 103c0 <load_pgtlb+0xc4>
   10348:	ebffff4c 	bl	10080 <_puts>
   1034c:	e59f3070 	ldr	r3, [pc, #112]	; 103c4 <load_pgtlb+0xc8>
   10350:	e50b3010 	str	r3, [fp, #-16]
   10354:	e51b3010 	ldr	r3, [fp, #-16]
   10358:	ee033f10 	mcr	15, 0, r3, cr3, cr0, {0}
   1035c:	e3a03004 	mov	r3, #4
   10360:	e50b3010 	str	r3, [fp, #-16]
   10364:	e51b3010 	ldr	r3, [fp, #-16]
   10368:	ee023f50 	mcr	15, 0, r3, cr2, cr0, {2}
   1036c:	e59f3054 	ldr	r3, [pc, #84]	; 103c8 <load_pgtlb+0xcc>
   10370:	e5933000 	ldr	r3, [r3]
   10374:	e50b3010 	str	r3, [fp, #-16]
   10378:	e51b3010 	ldr	r3, [fp, #-16]
   1037c:	ee023f30 	mcr	15, 0, r3, cr2, cr0, {1}
   10380:	e51b301c 	ldr	r3, [fp, #-28]	; 0xffffffe4
   10384:	e50b3010 	str	r3, [fp, #-16]
   10388:	e51b3010 	ldr	r3, [fp, #-16]
   1038c:	ee023f10 	mcr	15, 0, r3, cr2, cr0, {0}
   10390:	ee113f10 	mrc	15, 0, r3, cr1, cr0, {0}
   10394:	e50b3010 	str	r3, [fp, #-16]
   10398:	e51b2010 	ldr	r2, [fp, #-16]
   1039c:	e59f3028 	ldr	r3, [pc, #40]	; 103cc <load_pgtlb+0xd0>
   103a0:	e1823003 	orr	r3, r2, r3
   103a4:	e50b3010 	str	r3, [fp, #-16]
   103a8:	e51b3010 	ldr	r3, [fp, #-16]
   103ac:	ee013f10 	mcr	15, 0, r3, cr1, cr0, {0}
   103b0:	ebffffc6 	bl	102d0 <_flush_all>
   103b4:	e1a00000 	nop			; (mov r0, r0)
   103b8:	e24bd004 	sub	sp, fp, #4
   103bc:	e8bd8800 	pop	{fp, pc}
   103c0:	00010504 	.word	0x00010504
   103c4:	55555555 	.word	0x55555555
   103c8:	00010560 	.word	0x00010560
   103cc:	0080300d 	.word	0x0080300d

000103d0 <clear_bss>:
   103d0:	e92d4800 	push	{fp, lr}
   103d4:	e28db004 	add	fp, sp, #4
   103d8:	e59f201c 	ldr	r2, [pc, #28]	; 103fc <clear_bss+0x2c>
   103dc:	e59f301c 	ldr	r3, [pc, #28]	; 10400 <clear_bss+0x30>
   103e0:	e0423003 	sub	r3, r2, r3
   103e4:	e1a02003 	mov	r2, r3
   103e8:	e3a01000 	mov	r1, #0
   103ec:	e59f000c 	ldr	r0, [pc, #12]	; 10400 <clear_bss+0x30>
   103f0:	eb000038 	bl	104d8 <__memset_veneer>
   103f4:	e1a00000 	nop			; (mov r0, r0)
   103f8:	e8bd8800 	pop	{fp, pc}
   103fc:	800b1000 	.word	0x800b1000
   10400:	800ab0d4 	.word	0x800ab0d4

00010404 <start>:
   10404:	e92d4800 	push	{fp, lr}
   10408:	e28db004 	add	fp, sp, #4
   1040c:	e24dd008 	sub	sp, sp, #8
   10410:	e59f00a4 	ldr	r0, [pc, #164]	; 104bc <start+0xb8>
   10414:	ebffff19 	bl	10080 <_puts>
   10418:	e3a03000 	mov	r3, #0
   1041c:	e3a02601 	mov	r2, #1048576	; 0x100000
   10420:	e3a01000 	mov	r1, #0
   10424:	e3a00000 	mov	r0, #0
   10428:	ebffff61 	bl	101b4 <set_bootpgtbl>
   1042c:	e3a03000 	mov	r3, #0
   10430:	e3a02601 	mov	r2, #1048576	; 0x100000
   10434:	e3a01000 	mov	r1, #0
   10438:	e3a00102 	mov	r0, #-2147483648	; 0x80000000
   1043c:	ebffff5c 	bl	101b4 <set_bootpgtbl>
   10440:	e59f3078 	ldr	r3, [pc, #120]	; 104c0 <start+0xbc>
   10444:	e50b3008 	str	r3, [fp, #-8]
   10448:	e59f2074 	ldr	r2, [pc, #116]	; 104c4 <start+0xc0>
   1044c:	e51b3008 	ldr	r3, [fp, #-8]
   10450:	e1530002 	cmp	r3, r2
   10454:	8a000001 	bhi	10460 <start+0x5c>
   10458:	e59f0068 	ldr	r0, [pc, #104]	; 104c8 <start+0xc4>
   1045c:	eb00001f 	bl	104e0 <__cprintf_veneer>
   10460:	e3a03000 	mov	r3, #0
   10464:	e3a02601 	mov	r2, #1048576	; 0x100000
   10468:	e3a01000 	mov	r1, #0
   1046c:	e59f0058 	ldr	r0, [pc, #88]	; 104cc <start+0xc8>
   10470:	ebffff4f 	bl	101b4 <set_bootpgtbl>
   10474:	e3a03001 	mov	r3, #1
   10478:	e3a02302 	mov	r2, #134217728	; 0x8000000
   1047c:	e3a01201 	mov	r1, #268435456	; 0x10000000
   10480:	e3a00209 	mov	r0, #-1879048192	; 0x90000000
   10484:	ebffff4a 	bl	101b4 <set_bootpgtbl>
   10488:	e59f3040 	ldr	r3, [pc, #64]	; 104d0 <start+0xcc>
   1048c:	e5932000 	ldr	r2, [r3]
   10490:	e59f303c 	ldr	r3, [pc, #60]	; 104d4 <start+0xd0>
   10494:	e5933000 	ldr	r3, [r3]
   10498:	e1a01003 	mov	r1, r3
   1049c:	e1a00002 	mov	r0, r2
   104a0:	ebffff95 	bl	102fc <load_pgtlb>
   104a4:	ebfffedf 	bl	10028 <jump_stack>
   104a8:	ebffffc8 	bl	103d0 <clear_bss>
   104ac:	eb00000d 	bl	104e8 <__kmain_veneer>
   104b0:	e1a00000 	nop			; (mov r0, r0)
   104b4:	e24bd004 	sub	sp, fp, #4
   104b8:	e8bd8800 	pop	{fp, pc}
   104bc:	0001051c 	.word	0x0001051c
   104c0:	800f0000 	.word	0x800f0000
   104c4:	800b1000 	.word	0x800b1000
   104c8:	00010538 	.word	0x00010538
   104cc:	ffff0000 	.word	0xffff0000
   104d0:	00010560 	.word	0x00010560
   104d4:	00010564 	.word	0x00010564

000104d8 <__memset_veneer>:
   104d8:	e51ff004 	ldr	pc, [pc, #-4]	; 104dc <__memset_veneer+0x4>
   104dc:	80020000 	.word	0x80020000

000104e0 <__cprintf_veneer>:
   104e0:	e51ff004 	ldr	pc, [pc, #-4]	; 104e4 <__cprintf_veneer+0x4>
   104e4:	8002193c 	.word	0x8002193c

000104e8 <__kmain_veneer>:
   104e8:	e51ff004 	ldr	pc, [pc, #-4]	; 104ec <__kmain_veneer+0x4>
   104ec:	8002465c 	.word	0x8002465c
   104f0:	33323130 	.word	0x33323130
   104f4:	37363534 	.word	0x37363534
   104f8:	42413938 	.word	0x42413938
   104fc:	46454443 	.word	0x46454443
   10500:	00000000 	.word	0x00000000
   10504:	6465656e 	.word	0x6465656e
   10508:	52414120 	.word	0x52414120
   1050c:	3676204d 	.word	0x3676204d
   10510:	20726f20 	.word	0x20726f20
   10514:	68676968 	.word	0x68676968
   10518:	000a7265 	.word	0x000a7265
   1051c:	72617473 	.word	0x72617473
   10520:	676e6974 	.word	0x676e6974
   10524:	36767820 	.word	0x36767820
   10528:	726f6620 	.word	0x726f6620
   1052c:	4d524120 	.word	0x4d524120
   10530:	0a2e2e2e 	.word	0x0a2e2e2e
   10534:	00000000 	.word	0x00000000
   10538:	6f727265 	.word	0x6f727265
   1053c:	76203a72 	.word	0x76203a72
   10540:	6f746365 	.word	0x6f746365
   10544:	61742072 	.word	0x61742072
   10548:	20656c62 	.word	0x20656c62
   1054c:	7265766f 	.word	0x7265766f
   10550:	7370616c 	.word	0x7370616c
   10554:	72656b20 	.word	0x72656b20
   10558:	0a6c656e 	.word	0x0a6c656e
   1055c:	00000000 	.word	0x00000000

00010560 <kernel_pgtbl>:
   10560:	00014000                                .@..

00010564 <user_pgtbl>:
   10564:	00018000                                ....

00010568 <edata_entry>:
	...

00012000 <svc_stktop>:
	...

00014000 <_kernel_pgtbl>:
	...

00018000 <_user_pgtbl>:
	...

Disassembly of section .text:

80020000 <memset>:
80020000:	e52db004 	push	{fp}		; (str fp, [sp, #-4]!)
80020004:	e28db000 	add	fp, sp, #0
80020008:	e24dd024 	sub	sp, sp, #36	; 0x24
8002000c:	e50b0018 	str	r0, [fp, #-24]	; 0xffffffe8
80020010:	e50b101c 	str	r1, [fp, #-28]	; 0xffffffe4
80020014:	e50b2020 	str	r2, [fp, #-32]	; 0xffffffe0
80020018:	e51b3018 	ldr	r3, [fp, #-24]	; 0xffffffe8
8002001c:	e50b3008 	str	r3, [fp, #-8]
80020020:	e51b301c 	ldr	r3, [fp, #-28]	; 0xffffffe4
80020024:	e54b300d 	strb	r3, [fp, #-13]
80020028:	e55b300d 	ldrb	r3, [fp, #-13]
8002002c:	e1a02c03 	lsl	r2, r3, #24
80020030:	e55b300d 	ldrb	r3, [fp, #-13]
80020034:	e1a03803 	lsl	r3, r3, #16
80020038:	e1822003 	orr	r2, r2, r3
8002003c:	e55b300d 	ldrb	r3, [fp, #-13]
80020040:	e1a03403 	lsl	r3, r3, #8
80020044:	e1822003 	orr	r2, r2, r3
80020048:	e55b300d 	ldrb	r3, [fp, #-13]
8002004c:	e1823003 	orr	r3, r2, r3
80020050:	e50b3014 	str	r3, [fp, #-20]	; 0xffffffec
80020054:	ea000008 	b	8002007c <memset+0x7c>
80020058:	e51b3008 	ldr	r3, [fp, #-8]
8002005c:	e55b200d 	ldrb	r2, [fp, #-13]
80020060:	e5c32000 	strb	r2, [r3]
80020064:	e51b3020 	ldr	r3, [fp, #-32]	; 0xffffffe0
80020068:	e2433001 	sub	r3, r3, #1
8002006c:	e50b3020 	str	r3, [fp, #-32]	; 0xffffffe0
80020070:	e51b3008 	ldr	r3, [fp, #-8]
80020074:	e2833001 	add	r3, r3, #1
80020078:	e50b3008 	str	r3, [fp, #-8]
8002007c:	e51b3020 	ldr	r3, [fp, #-32]	; 0xffffffe0
80020080:	e3530000 	cmp	r3, #0
80020084:	da000003 	ble	80020098 <memset+0x98>
80020088:	e51b3008 	ldr	r3, [fp, #-8]
8002008c:	e2033003 	and	r3, r3, #3
80020090:	e3530000 	cmp	r3, #0
80020094:	1affffef 	bne	80020058 <memset+0x58>
80020098:	e51b3008 	ldr	r3, [fp, #-8]
8002009c:	e50b300c 	str	r3, [fp, #-12]
800200a0:	ea000008 	b	800200c8 <memset+0xc8>
800200a4:	e51b300c 	ldr	r3, [fp, #-12]
800200a8:	e51b2014 	ldr	r2, [fp, #-20]	; 0xffffffec
800200ac:	e5832000 	str	r2, [r3]
800200b0:	e51b3020 	ldr	r3, [fp, #-32]	; 0xffffffe0
800200b4:	e2433004 	sub	r3, r3, #4
800200b8:	e50b3020 	str	r3, [fp, #-32]	; 0xffffffe0
800200bc:	e51b300c 	ldr	r3, [fp, #-12]
800200c0:	e2833004 	add	r3, r3, #4
800200c4:	e50b300c 	str	r3, [fp, #-12]
800200c8:	e51b3020 	ldr	r3, [fp, #-32]	; 0xffffffe0
800200cc:	e3530003 	cmp	r3, #3
800200d0:	cafffff3 	bgt	800200a4 <memset+0xa4>
800200d4:	e51b300c 	ldr	r3, [fp, #-12]
800200d8:	e50b3008 	str	r3, [fp, #-8]
800200dc:	ea000008 	b	80020104 <memset+0x104>
800200e0:	e51b3008 	ldr	r3, [fp, #-8]
800200e4:	e55b200d 	ldrb	r2, [fp, #-13]
800200e8:	e5c32000 	strb	r2, [r3]
800200ec:	e51b3020 	ldr	r3, [fp, #-32]	; 0xffffffe0
800200f0:	e2433001 	sub	r3, r3, #1
800200f4:	e50b3020 	str	r3, [fp, #-32]	; 0xffffffe0
800200f8:	e51b3008 	ldr	r3, [fp, #-8]
800200fc:	e2833001 	add	r3, r3, #1
80020100:	e50b3008 	str	r3, [fp, #-8]
80020104:	e51b3020 	ldr	r3, [fp, #-32]	; 0xffffffe0
80020108:	e3530000 	cmp	r3, #0
8002010c:	cafffff3 	bgt	800200e0 <memset+0xe0>
80020110:	e51b3018 	ldr	r3, [fp, #-24]	; 0xffffffe8
80020114:	e1a00003 	mov	r0, r3
80020118:	e28bd000 	add	sp, fp, #0
8002011c:	e49db004 	pop	{fp}		; (ldr fp, [sp], #4)
80020120:	e12fff1e 	bx	lr

80020124 <memcmp>:
80020124:	e52db004 	push	{fp}		; (str fp, [sp, #-4]!)
80020128:	e28db000 	add	fp, sp, #0
8002012c:	e24dd01c 	sub	sp, sp, #28
80020130:	e50b0010 	str	r0, [fp, #-16]
80020134:	e50b1014 	str	r1, [fp, #-20]	; 0xffffffec
80020138:	e50b2018 	str	r2, [fp, #-24]	; 0xffffffe8
8002013c:	e51b3010 	ldr	r3, [fp, #-16]
80020140:	e50b3008 	str	r3, [fp, #-8]
80020144:	e51b3014 	ldr	r3, [fp, #-20]	; 0xffffffec
80020148:	e50b300c 	str	r3, [fp, #-12]
8002014c:	ea000012 	b	8002019c <memcmp+0x78>
80020150:	e51b3008 	ldr	r3, [fp, #-8]
80020154:	e5d32000 	ldrb	r2, [r3]
80020158:	e51b300c 	ldr	r3, [fp, #-12]
8002015c:	e5d33000 	ldrb	r3, [r3]
80020160:	e1520003 	cmp	r2, r3
80020164:	0a000006 	beq	80020184 <memcmp+0x60>
80020168:	e51b3008 	ldr	r3, [fp, #-8]
8002016c:	e5d33000 	ldrb	r3, [r3]
80020170:	e1a02003 	mov	r2, r3
80020174:	e51b300c 	ldr	r3, [fp, #-12]
80020178:	e5d33000 	ldrb	r3, [r3]
8002017c:	e0423003 	sub	r3, r2, r3
80020180:	ea00000b 	b	800201b4 <memcmp+0x90>
80020184:	e51b3008 	ldr	r3, [fp, #-8]
80020188:	e2833001 	add	r3, r3, #1
8002018c:	e50b3008 	str	r3, [fp, #-8]
80020190:	e51b300c 	ldr	r3, [fp, #-12]
80020194:	e2833001 	add	r3, r3, #1
80020198:	e50b300c 	str	r3, [fp, #-12]
8002019c:	e51b3018 	ldr	r3, [fp, #-24]	; 0xffffffe8
800201a0:	e2432001 	sub	r2, r3, #1
800201a4:	e50b2018 	str	r2, [fp, #-24]	; 0xffffffe8
800201a8:	e3530000 	cmp	r3, #0
800201ac:	1affffe7 	bne	80020150 <memcmp+0x2c>
800201b0:	e3a03000 	mov	r3, #0
800201b4:	e1a00003 	mov	r0, r3
800201b8:	e28bd000 	add	sp, fp, #0
800201bc:	e49db004 	pop	{fp}		; (ldr fp, [sp], #4)
800201c0:	e12fff1e 	bx	lr

800201c4 <memmove>:
800201c4:	e52db004 	push	{fp}		; (str fp, [sp, #-4]!)
800201c8:	e28db000 	add	fp, sp, #0
800201cc:	e24dd01c 	sub	sp, sp, #28
800201d0:	e50b0010 	str	r0, [fp, #-16]
800201d4:	e50b1014 	str	r1, [fp, #-20]	; 0xffffffec
800201d8:	e50b2018 	str	r2, [fp, #-24]	; 0xffffffe8
800201dc:	e51b3014 	ldr	r3, [fp, #-20]	; 0xffffffec
800201e0:	e50b3008 	str	r3, [fp, #-8]
800201e4:	e51b3010 	ldr	r3, [fp, #-16]
800201e8:	e50b300c 	str	r3, [fp, #-12]
800201ec:	e51b2008 	ldr	r2, [fp, #-8]
800201f0:	e51b300c 	ldr	r3, [fp, #-12]
800201f4:	e1520003 	cmp	r2, r3
800201f8:	2a000026 	bcs	80020298 <memmove+0xd4>
800201fc:	e51b2008 	ldr	r2, [fp, #-8]
80020200:	e51b3018 	ldr	r3, [fp, #-24]	; 0xffffffe8
80020204:	e0823003 	add	r3, r2, r3
80020208:	e51b200c 	ldr	r2, [fp, #-12]
8002020c:	e1520003 	cmp	r2, r3
80020210:	2a000020 	bcs	80020298 <memmove+0xd4>
80020214:	e51b2008 	ldr	r2, [fp, #-8]
80020218:	e51b3018 	ldr	r3, [fp, #-24]	; 0xffffffe8
8002021c:	e0823003 	add	r3, r2, r3
80020220:	e50b3008 	str	r3, [fp, #-8]
80020224:	e51b200c 	ldr	r2, [fp, #-12]
80020228:	e51b3018 	ldr	r3, [fp, #-24]	; 0xffffffe8
8002022c:	e0823003 	add	r3, r2, r3
80020230:	e50b300c 	str	r3, [fp, #-12]
80020234:	ea000009 	b	80020260 <memmove+0x9c>
80020238:	e51b3008 	ldr	r3, [fp, #-8]
8002023c:	e2433001 	sub	r3, r3, #1
80020240:	e50b3008 	str	r3, [fp, #-8]
80020244:	e51b300c 	ldr	r3, [fp, #-12]
80020248:	e2433001 	sub	r3, r3, #1
8002024c:	e50b300c 	str	r3, [fp, #-12]
80020250:	e51b3008 	ldr	r3, [fp, #-8]
80020254:	e5d32000 	ldrb	r2, [r3]
80020258:	e51b300c 	ldr	r3, [fp, #-12]
8002025c:	e5c32000 	strb	r2, [r3]
80020260:	e51b3018 	ldr	r3, [fp, #-24]	; 0xffffffe8
80020264:	e2432001 	sub	r2, r3, #1
80020268:	e50b2018 	str	r2, [fp, #-24]	; 0xffffffe8
8002026c:	e3530000 	cmp	r3, #0
80020270:	1afffff0 	bne	80020238 <memmove+0x74>
80020274:	ea00000c 	b	800202ac <memmove+0xe8>
80020278:	e51b2008 	ldr	r2, [fp, #-8]
8002027c:	e2823001 	add	r3, r2, #1
80020280:	e50b3008 	str	r3, [fp, #-8]
80020284:	e51b300c 	ldr	r3, [fp, #-12]
80020288:	e2831001 	add	r1, r3, #1
8002028c:	e50b100c 	str	r1, [fp, #-12]
80020290:	e5d22000 	ldrb	r2, [r2]
80020294:	e5c32000 	strb	r2, [r3]
80020298:	e51b3018 	ldr	r3, [fp, #-24]	; 0xffffffe8
8002029c:	e2432001 	sub	r2, r3, #1
800202a0:	e50b2018 	str	r2, [fp, #-24]	; 0xffffffe8
800202a4:	e3530000 	cmp	r3, #0
800202a8:	1afffff2 	bne	80020278 <memmove+0xb4>
800202ac:	e51b3010 	ldr	r3, [fp, #-16]
800202b0:	e1a00003 	mov	r0, r3
800202b4:	e28bd000 	add	sp, fp, #0
800202b8:	e49db004 	pop	{fp}		; (ldr fp, [sp], #4)
800202bc:	e12fff1e 	bx	lr

800202c0 <memcpy>:
800202c0:	e92d4800 	push	{fp, lr}
800202c4:	e28db004 	add	fp, sp, #4
800202c8:	e24dd010 	sub	sp, sp, #16
800202cc:	e50b0008 	str	r0, [fp, #-8]
800202d0:	e50b100c 	str	r1, [fp, #-12]
800202d4:	e50b2010 	str	r2, [fp, #-16]
800202d8:	e51b2010 	ldr	r2, [fp, #-16]
800202dc:	e51b100c 	ldr	r1, [fp, #-12]
800202e0:	e51b0008 	ldr	r0, [fp, #-8]
800202e4:	ebffffb6 	bl	800201c4 <memmove>
800202e8:	e1a03000 	mov	r3, r0
800202ec:	e1a00003 	mov	r0, r3
800202f0:	e24bd004 	sub	sp, fp, #4
800202f4:	e8bd8800 	pop	{fp, pc}

800202f8 <strncmp>:
800202f8:	e52db004 	push	{fp}		; (str fp, [sp, #-4]!)
800202fc:	e28db000 	add	fp, sp, #0
80020300:	e24dd014 	sub	sp, sp, #20
80020304:	e50b0008 	str	r0, [fp, #-8]
80020308:	e50b100c 	str	r1, [fp, #-12]
8002030c:	e50b2010 	str	r2, [fp, #-16]
80020310:	ea000008 	b	80020338 <strncmp+0x40>
80020314:	e51b3010 	ldr	r3, [fp, #-16]
80020318:	e2433001 	sub	r3, r3, #1
8002031c:	e50b3010 	str	r3, [fp, #-16]
80020320:	e51b3008 	ldr	r3, [fp, #-8]
80020324:	e2833001 	add	r3, r3, #1
80020328:	e50b3008 	str	r3, [fp, #-8]
8002032c:	e51b300c 	ldr	r3, [fp, #-12]
80020330:	e2833001 	add	r3, r3, #1
80020334:	e50b300c 	str	r3, [fp, #-12]
80020338:	e51b3010 	ldr	r3, [fp, #-16]
8002033c:	e3530000 	cmp	r3, #0
80020340:	0a000009 	beq	8002036c <strncmp+0x74>
80020344:	e51b3008 	ldr	r3, [fp, #-8]
80020348:	e5d33000 	ldrb	r3, [r3]
8002034c:	e3530000 	cmp	r3, #0
80020350:	0a000005 	beq	8002036c <strncmp+0x74>
80020354:	e51b3008 	ldr	r3, [fp, #-8]
80020358:	e5d32000 	ldrb	r2, [r3]
8002035c:	e51b300c 	ldr	r3, [fp, #-12]
80020360:	e5d33000 	ldrb	r3, [r3]
80020364:	e1520003 	cmp	r2, r3
80020368:	0affffe9 	beq	80020314 <strncmp+0x1c>
8002036c:	e51b3010 	ldr	r3, [fp, #-16]
80020370:	e3530000 	cmp	r3, #0
80020374:	1a000001 	bne	80020380 <strncmp+0x88>
80020378:	e3a03000 	mov	r3, #0
8002037c:	ea000005 	b	80020398 <strncmp+0xa0>
80020380:	e51b3008 	ldr	r3, [fp, #-8]
80020384:	e5d33000 	ldrb	r3, [r3]
80020388:	e1a02003 	mov	r2, r3
8002038c:	e51b300c 	ldr	r3, [fp, #-12]
80020390:	e5d33000 	ldrb	r3, [r3]
80020394:	e0423003 	sub	r3, r2, r3
80020398:	e1a00003 	mov	r0, r3
8002039c:	e28bd000 	add	sp, fp, #0
800203a0:	e49db004 	pop	{fp}		; (ldr fp, [sp], #4)
800203a4:	e12fff1e 	bx	lr

800203a8 <strncpy>:
800203a8:	e52db004 	push	{fp}		; (str fp, [sp, #-4]!)
800203ac:	e28db000 	add	fp, sp, #0
800203b0:	e24dd01c 	sub	sp, sp, #28
800203b4:	e50b0010 	str	r0, [fp, #-16]
800203b8:	e50b1014 	str	r1, [fp, #-20]	; 0xffffffec
800203bc:	e50b2018 	str	r2, [fp, #-24]	; 0xffffffe8
800203c0:	e51b3010 	ldr	r3, [fp, #-16]
800203c4:	e50b3008 	str	r3, [fp, #-8]
800203c8:	e1a00000 	nop			; (mov r0, r0)
800203cc:	e51b3018 	ldr	r3, [fp, #-24]	; 0xffffffe8
800203d0:	e2432001 	sub	r2, r3, #1
800203d4:	e50b2018 	str	r2, [fp, #-24]	; 0xffffffe8
800203d8:	e3530000 	cmp	r3, #0
800203dc:	da000010 	ble	80020424 <strncpy+0x7c>
800203e0:	e51b2014 	ldr	r2, [fp, #-20]	; 0xffffffec
800203e4:	e2823001 	add	r3, r2, #1
800203e8:	e50b3014 	str	r3, [fp, #-20]	; 0xffffffec
800203ec:	e51b3010 	ldr	r3, [fp, #-16]
800203f0:	e2831001 	add	r1, r3, #1
800203f4:	e50b1010 	str	r1, [fp, #-16]
800203f8:	e5d22000 	ldrb	r2, [r2]
800203fc:	e5c32000 	strb	r2, [r3]
80020400:	e5d33000 	ldrb	r3, [r3]
80020404:	e3530000 	cmp	r3, #0
80020408:	1affffef 	bne	800203cc <strncpy+0x24>
8002040c:	ea000004 	b	80020424 <strncpy+0x7c>
80020410:	e51b3010 	ldr	r3, [fp, #-16]
80020414:	e2832001 	add	r2, r3, #1
80020418:	e50b2010 	str	r2, [fp, #-16]
8002041c:	e3a02000 	mov	r2, #0
80020420:	e5c32000 	strb	r2, [r3]
80020424:	e51b3018 	ldr	r3, [fp, #-24]	; 0xffffffe8
80020428:	e2432001 	sub	r2, r3, #1
8002042c:	e50b2018 	str	r2, [fp, #-24]	; 0xffffffe8
80020430:	e3530000 	cmp	r3, #0
80020434:	cafffff5 	bgt	80020410 <strncpy+0x68>
80020438:	e51b3008 	ldr	r3, [fp, #-8]
8002043c:	e1a00003 	mov	r0, r3
80020440:	e28bd000 	add	sp, fp, #0
80020444:	e49db004 	pop	{fp}		; (ldr fp, [sp], #4)
80020448:	e12fff1e 	bx	lr

8002044c <safestrcpy>:
8002044c:	e52db004 	push	{fp}		; (str fp, [sp, #-4]!)
80020450:	e28db000 	add	fp, sp, #0
80020454:	e24dd01c 	sub	sp, sp, #28
80020458:	e50b0010 	str	r0, [fp, #-16]
8002045c:	e50b1014 	str	r1, [fp, #-20]	; 0xffffffec
80020460:	e50b2018 	str	r2, [fp, #-24]	; 0xffffffe8
80020464:	e51b3010 	ldr	r3, [fp, #-16]
80020468:	e50b3008 	str	r3, [fp, #-8]
8002046c:	e51b3018 	ldr	r3, [fp, #-24]	; 0xffffffe8
80020470:	e3530000 	cmp	r3, #0
80020474:	ca000001 	bgt	80020480 <safestrcpy+0x34>
80020478:	e51b3008 	ldr	r3, [fp, #-8]
8002047c:	ea000014 	b	800204d4 <safestrcpy+0x88>
80020480:	e51b3018 	ldr	r3, [fp, #-24]	; 0xffffffe8
80020484:	e2433001 	sub	r3, r3, #1
80020488:	e50b3018 	str	r3, [fp, #-24]	; 0xffffffe8
8002048c:	e51b3018 	ldr	r3, [fp, #-24]	; 0xffffffe8
80020490:	e3530000 	cmp	r3, #0
80020494:	da00000a 	ble	800204c4 <safestrcpy+0x78>
80020498:	e51b2014 	ldr	r2, [fp, #-20]	; 0xffffffec
8002049c:	e2823001 	add	r3, r2, #1
800204a0:	e50b3014 	str	r3, [fp, #-20]	; 0xffffffec
800204a4:	e51b3010 	ldr	r3, [fp, #-16]
800204a8:	e2831001 	add	r1, r3, #1
800204ac:	e50b1010 	str	r1, [fp, #-16]
800204b0:	e5d22000 	ldrb	r2, [r2]
800204b4:	e5c32000 	strb	r2, [r3]
800204b8:	e5d33000 	ldrb	r3, [r3]
800204bc:	e3530000 	cmp	r3, #0
800204c0:	1affffee 	bne	80020480 <safestrcpy+0x34>
800204c4:	e51b3010 	ldr	r3, [fp, #-16]
800204c8:	e3a02000 	mov	r2, #0
800204cc:	e5c32000 	strb	r2, [r3]
800204d0:	e51b3008 	ldr	r3, [fp, #-8]
800204d4:	e1a00003 	mov	r0, r3
800204d8:	e28bd000 	add	sp, fp, #0
800204dc:	e49db004 	pop	{fp}		; (ldr fp, [sp], #4)
800204e0:	e12fff1e 	bx	lr

800204e4 <strlen>:
800204e4:	e52db004 	push	{fp}		; (str fp, [sp, #-4]!)
800204e8:	e28db000 	add	fp, sp, #0
800204ec:	e24dd014 	sub	sp, sp, #20
800204f0:	e50b0010 	str	r0, [fp, #-16]
800204f4:	e3a03000 	mov	r3, #0
800204f8:	e50b3008 	str	r3, [fp, #-8]
800204fc:	ea000002 	b	8002050c <strlen+0x28>
80020500:	e51b3008 	ldr	r3, [fp, #-8]
80020504:	e2833001 	add	r3, r3, #1
80020508:	e50b3008 	str	r3, [fp, #-8]
8002050c:	e51b3008 	ldr	r3, [fp, #-8]
80020510:	e51b2010 	ldr	r2, [fp, #-16]
80020514:	e0823003 	add	r3, r2, r3
80020518:	e5d33000 	ldrb	r3, [r3]
8002051c:	e3530000 	cmp	r3, #0
80020520:	1afffff6 	bne	80020500 <strlen+0x1c>
80020524:	e51b3008 	ldr	r3, [fp, #-8]
80020528:	e1a00003 	mov	r0, r3
8002052c:	e28bd000 	add	sp, fp, #0
80020530:	e49db004 	pop	{fp}		; (ldr fp, [sp], #4)
80020534:	e12fff1e 	bx	lr

80020538 <cli>:
80020538:	e52db004 	push	{fp}		; (str fp, [sp, #-4]!)
8002053c:	e28db000 	add	fp, sp, #0
80020540:	e24dd00c 	sub	sp, sp, #12
80020544:	e10f3000 	mrs	r3, CPSR
80020548:	e50b3008 	str	r3, [fp, #-8]
8002054c:	e51b3008 	ldr	r3, [fp, #-8]
80020550:	e3833080 	orr	r3, r3, #128	; 0x80
80020554:	e50b3008 	str	r3, [fp, #-8]
80020558:	e51b3008 	ldr	r3, [fp, #-8]
8002055c:	e12ff003 	msr	CPSR_fsxc, r3
80020560:	e1a00000 	nop			; (mov r0, r0)
80020564:	e28bd000 	add	sp, fp, #0
80020568:	e49db004 	pop	{fp}		; (ldr fp, [sp], #4)
8002056c:	e12fff1e 	bx	lr

80020570 <sti>:
80020570:	e52db004 	push	{fp}		; (str fp, [sp, #-4]!)
80020574:	e28db000 	add	fp, sp, #0
80020578:	e24dd00c 	sub	sp, sp, #12
8002057c:	e10f3000 	mrs	r3, CPSR
80020580:	e50b3008 	str	r3, [fp, #-8]
80020584:	e51b3008 	ldr	r3, [fp, #-8]
80020588:	e3c33080 	bic	r3, r3, #128	; 0x80
8002058c:	e50b3008 	str	r3, [fp, #-8]
80020590:	e51b3008 	ldr	r3, [fp, #-8]
80020594:	e12ff003 	msr	CPSR_fsxc, r3
80020598:	e1a00000 	nop			; (mov r0, r0)
8002059c:	e28bd000 	add	sp, fp, #0
800205a0:	e49db004 	pop	{fp}		; (ldr fp, [sp], #4)
800205a4:	e12fff1e 	bx	lr

800205a8 <spsr_usr>:
800205a8:	e52db004 	push	{fp}		; (str fp, [sp, #-4]!)
800205ac:	e28db000 	add	fp, sp, #0
800205b0:	e24dd00c 	sub	sp, sp, #12
800205b4:	e10f3000 	mrs	r3, CPSR
800205b8:	e50b3008 	str	r3, [fp, #-8]
800205bc:	e51b3008 	ldr	r3, [fp, #-8]
800205c0:	e3c3301f 	bic	r3, r3, #31
800205c4:	e50b3008 	str	r3, [fp, #-8]
800205c8:	e51b3008 	ldr	r3, [fp, #-8]
800205cc:	e3833010 	orr	r3, r3, #16
800205d0:	e50b3008 	str	r3, [fp, #-8]
800205d4:	e51b3008 	ldr	r3, [fp, #-8]
800205d8:	e1a00003 	mov	r0, r3
800205dc:	e28bd000 	add	sp, fp, #0
800205e0:	e49db004 	pop	{fp}		; (ldr fp, [sp], #4)
800205e4:	e12fff1e 	bx	lr

800205e8 <int_enabled>:
800205e8:	e52db004 	push	{fp}		; (str fp, [sp, #-4]!)
800205ec:	e28db000 	add	fp, sp, #0
800205f0:	e24dd00c 	sub	sp, sp, #12
800205f4:	e10f3000 	mrs	r3, CPSR
800205f8:	e50b3008 	str	r3, [fp, #-8]
800205fc:	e51b3008 	ldr	r3, [fp, #-8]
80020600:	e2033080 	and	r3, r3, #128	; 0x80
80020604:	e3530000 	cmp	r3, #0
80020608:	03a03001 	moveq	r3, #1
8002060c:	13a03000 	movne	r3, #0
80020610:	e6ef3073 	uxtb	r3, r3
80020614:	e1a00003 	mov	r0, r3
80020618:	e28bd000 	add	sp, fp, #0
8002061c:	e49db004 	pop	{fp}		; (ldr fp, [sp], #4)
80020620:	e12fff1e 	bx	lr

80020624 <pushcli>:
80020624:	e92d4800 	push	{fp, lr}
80020628:	e28db004 	add	fp, sp, #4
8002062c:	e24dd008 	sub	sp, sp, #8
80020630:	ebffffec 	bl	800205e8 <int_enabled>
80020634:	e50b0008 	str	r0, [fp, #-8]
80020638:	ebffffbe 	bl	80020538 <cli>
8002063c:	e59f3030 	ldr	r3, [pc, #48]	; 80020674 <pushcli+0x50>
80020640:	e5932000 	ldr	r2, [r3]
80020644:	e592300c 	ldr	r3, [r2, #12]
80020648:	e2831001 	add	r1, r3, #1
8002064c:	e582100c 	str	r1, [r2, #12]
80020650:	e3530000 	cmp	r3, #0
80020654:	1a000003 	bne	80020668 <pushcli+0x44>
80020658:	e59f3014 	ldr	r3, [pc, #20]	; 80020674 <pushcli+0x50>
8002065c:	e5933000 	ldr	r3, [r3]
80020660:	e51b2008 	ldr	r2, [fp, #-8]
80020664:	e5832010 	str	r2, [r3, #16]
80020668:	e1a00000 	nop			; (mov r0, r0)
8002066c:	e24bd004 	sub	sp, fp, #4
80020670:	e8bd8800 	pop	{fp, pc}
80020674:	800ae52c 	.word	0x800ae52c

80020678 <popcli>:
80020678:	e92d4800 	push	{fp, lr}
8002067c:	e28db004 	add	fp, sp, #4
80020680:	ebffffd8 	bl	800205e8 <int_enabled>
80020684:	e1a03000 	mov	r3, r0
80020688:	e3530000 	cmp	r3, #0
8002068c:	0a000001 	beq	80020698 <popcli+0x20>
80020690:	e59f007c 	ldr	r0, [pc, #124]	; 80020714 <popcli+0x9c>
80020694:	eb000529 	bl	80021b40 <panic>
80020698:	e59f3078 	ldr	r3, [pc, #120]	; 80020718 <popcli+0xa0>
8002069c:	e5933000 	ldr	r3, [r3]
800206a0:	e593200c 	ldr	r2, [r3, #12]
800206a4:	e2422001 	sub	r2, r2, #1
800206a8:	e583200c 	str	r2, [r3, #12]
800206ac:	e593300c 	ldr	r3, [r3, #12]
800206b0:	e3530000 	cmp	r3, #0
800206b4:	aa000009 	bge	800206e0 <popcli+0x68>
800206b8:	e59f3058 	ldr	r3, [pc, #88]	; 80020718 <popcli+0xa0>
800206bc:	e5931000 	ldr	r1, [r3]
800206c0:	e59f3050 	ldr	r3, [pc, #80]	; 80020718 <popcli+0xa0>
800206c4:	e5933000 	ldr	r3, [r3]
800206c8:	e593300c 	ldr	r3, [r3, #12]
800206cc:	e1a02003 	mov	r2, r3
800206d0:	e59f0044 	ldr	r0, [pc, #68]	; 8002071c <popcli+0xa4>
800206d4:	eb000498 	bl	8002193c <cprintf>
800206d8:	e59f0040 	ldr	r0, [pc, #64]	; 80020720 <popcli+0xa8>
800206dc:	eb000517 	bl	80021b40 <panic>
800206e0:	e59f3030 	ldr	r3, [pc, #48]	; 80020718 <popcli+0xa0>
800206e4:	e5933000 	ldr	r3, [r3]
800206e8:	e593300c 	ldr	r3, [r3, #12]
800206ec:	e3530000 	cmp	r3, #0
800206f0:	1a000005 	bne	8002070c <popcli+0x94>
800206f4:	e59f301c 	ldr	r3, [pc, #28]	; 80020718 <popcli+0xa0>
800206f8:	e5933000 	ldr	r3, [r3]
800206fc:	e5933010 	ldr	r3, [r3, #16]
80020700:	e3530000 	cmp	r3, #0
80020704:	0a000000 	beq	8002070c <popcli+0x94>
80020708:	ebffff98 	bl	80020570 <sti>
8002070c:	e1a00000 	nop			; (mov r0, r0)
80020710:	e8bd8800 	pop	{fp, pc}
80020714:	8002a01c 	.word	0x8002a01c
80020718:	800ae52c 	.word	0x800ae52c
8002071c:	8002a034 	.word	0x8002a034
80020720:	8002a048 	.word	0x8002a048

80020724 <getcallerpcs>:
80020724:	e52db004 	push	{fp}		; (str fp, [sp, #-4]!)
80020728:	e28db000 	add	fp, sp, #0
8002072c:	e24dd014 	sub	sp, sp, #20
80020730:	e50b0010 	str	r0, [fp, #-16]
80020734:	e50b1014 	str	r1, [fp, #-20]	; 0xffffffec
80020738:	e51b3010 	ldr	r3, [fp, #-16]
8002073c:	e50b3008 	str	r3, [fp, #-8]
80020740:	e3a03000 	mov	r3, #0
80020744:	e50b300c 	str	r3, [fp, #-12]
80020748:	ea000018 	b	800207b0 <getcallerpcs+0x8c>
8002074c:	e51b3008 	ldr	r3, [fp, #-8]
80020750:	e3530000 	cmp	r3, #0
80020754:	0a000022 	beq	800207e4 <getcallerpcs+0xc0>
80020758:	e51b3008 	ldr	r3, [fp, #-8]
8002075c:	e3730106 	cmn	r3, #-2147483647	; 0x80000001
80020760:	9a00001f 	bls	800207e4 <getcallerpcs+0xc0>
80020764:	e51b3008 	ldr	r3, [fp, #-8]
80020768:	e3730001 	cmn	r3, #1
8002076c:	0a00001c 	beq	800207e4 <getcallerpcs+0xc0>
80020770:	e51b3008 	ldr	r3, [fp, #-8]
80020774:	e2433004 	sub	r3, r3, #4
80020778:	e50b3008 	str	r3, [fp, #-8]
8002077c:	e51b300c 	ldr	r3, [fp, #-12]
80020780:	e1a03103 	lsl	r3, r3, #2
80020784:	e51b2014 	ldr	r2, [fp, #-20]	; 0xffffffec
80020788:	e0823003 	add	r3, r2, r3
8002078c:	e51b2008 	ldr	r2, [fp, #-8]
80020790:	e5922004 	ldr	r2, [r2, #4]
80020794:	e5832000 	str	r2, [r3]
80020798:	e51b3008 	ldr	r3, [fp, #-8]
8002079c:	e5933000 	ldr	r3, [r3]
800207a0:	e50b3008 	str	r3, [fp, #-8]
800207a4:	e51b300c 	ldr	r3, [fp, #-12]
800207a8:	e2833001 	add	r3, r3, #1
800207ac:	e50b300c 	str	r3, [fp, #-12]
800207b0:	e51b300c 	ldr	r3, [fp, #-12]
800207b4:	e353000e 	cmp	r3, #14
800207b8:	daffffe3 	ble	8002074c <getcallerpcs+0x28>
800207bc:	ea000008 	b	800207e4 <getcallerpcs+0xc0>
800207c0:	e51b300c 	ldr	r3, [fp, #-12]
800207c4:	e1a03103 	lsl	r3, r3, #2
800207c8:	e51b2014 	ldr	r2, [fp, #-20]	; 0xffffffec
800207cc:	e0823003 	add	r3, r2, r3
800207d0:	e3a02000 	mov	r2, #0
800207d4:	e5832000 	str	r2, [r3]
800207d8:	e51b300c 	ldr	r3, [fp, #-12]
800207dc:	e2833001 	add	r3, r3, #1
800207e0:	e50b300c 	str	r3, [fp, #-12]
800207e4:	e51b300c 	ldr	r3, [fp, #-12]
800207e8:	e353000e 	cmp	r3, #14
800207ec:	dafffff3 	ble	800207c0 <getcallerpcs+0x9c>
800207f0:	e1a00000 	nop			; (mov r0, r0)
800207f4:	e28bd000 	add	sp, fp, #0
800207f8:	e49db004 	pop	{fp}		; (ldr fp, [sp], #4)
800207fc:	e12fff1e 	bx	lr

80020800 <show_callstk>:
80020800:	e92d4800 	push	{fp, lr}
80020804:	e28db004 	add	fp, sp, #4
80020808:	e24dd048 	sub	sp, sp, #72	; 0x48
8002080c:	e50b0048 	str	r0, [fp, #-72]	; 0xffffffb8
80020810:	e51b1048 	ldr	r1, [fp, #-72]	; 0xffffffb8
80020814:	e59f0070 	ldr	r0, [pc, #112]	; 8002088c <show_callstk+0x8c>
80020818:	eb000447 	bl	8002193c <cprintf>
8002081c:	eb000025 	bl	800208b8 <get_fp>
80020820:	e1a02000 	mov	r2, r0
80020824:	e24b3044 	sub	r3, fp, #68	; 0x44
80020828:	e1a01003 	mov	r1, r3
8002082c:	e1a00002 	mov	r0, r2
80020830:	ebffffbb 	bl	80020724 <getcallerpcs>
80020834:	e3a0300e 	mov	r3, #14
80020838:	e50b3008 	str	r3, [fp, #-8]
8002083c:	ea00000c 	b	80020874 <show_callstk+0x74>
80020840:	e51b3008 	ldr	r3, [fp, #-8]
80020844:	e2831001 	add	r1, r3, #1
80020848:	e51b3008 	ldr	r3, [fp, #-8]
8002084c:	e1a03103 	lsl	r3, r3, #2
80020850:	e24b2004 	sub	r2, fp, #4
80020854:	e0823003 	add	r3, r2, r3
80020858:	e5133040 	ldr	r3, [r3, #-64]	; 0xffffffc0
8002085c:	e1a02003 	mov	r2, r3
80020860:	e59f0028 	ldr	r0, [pc, #40]	; 80020890 <show_callstk+0x90>
80020864:	eb000434 	bl	8002193c <cprintf>
80020868:	e51b3008 	ldr	r3, [fp, #-8]
8002086c:	e2433001 	sub	r3, r3, #1
80020870:	e50b3008 	str	r3, [fp, #-8]
80020874:	e51b3008 	ldr	r3, [fp, #-8]
80020878:	e3530000 	cmp	r3, #0
8002087c:	aaffffef 	bge	80020840 <show_callstk+0x40>
80020880:	e1a00000 	nop			; (mov r0, r0)
80020884:	e24bd004 	sub	sp, fp, #4
80020888:	e8bd8800 	pop	{fp, pc}
8002088c:	8002a05c 	.word	0x8002a05c
80020890:	8002a060 	.word	0x8002a060

80020894 <set_stk>:
80020894:	e10f2000 	mrs	r2, CPSR
80020898:	e3c2201f 	bic	r2, r2, #31
8002089c:	e1822000 	orr	r2, r2, r0
800208a0:	e12ff002 	msr	CPSR_fsxc, r2
800208a4:	e1a0d001 	mov	sp, r1
800208a8:	e3c2201f 	bic	r2, r2, #31
800208ac:	e3822013 	orr	r2, r2, #19
800208b0:	e12ff002 	msr	CPSR_fsxc, r2
800208b4:	e12fff1e 	bx	lr

800208b8 <get_fp>:
800208b8:	e1a0000b 	mov	r0, fp
800208bc:	e12fff1e 	bx	lr

800208c0 <binit>:
800208c0:	e92d4800 	push	{fp, lr}
800208c4:	e28db004 	add	fp, sp, #4
800208c8:	e24dd008 	sub	sp, sp, #8
800208cc:	e59f10b4 	ldr	r1, [pc, #180]	; 80020988 <binit+0xc8>
800208d0:	e59f00b4 	ldr	r0, [pc, #180]	; 8002098c <binit+0xcc>
800208d4:	eb001535 	bl	80025db0 <initlock>
800208d8:	e59f30ac 	ldr	r3, [pc, #172]	; 8002098c <binit+0xcc>
800208dc:	e2833a01 	add	r3, r3, #4096	; 0x1000
800208e0:	e1a02003 	mov	r2, r3
800208e4:	e59f30a4 	ldr	r3, [pc, #164]	; 80020990 <binit+0xd0>
800208e8:	e5823530 	str	r3, [r2, #1328]	; 0x530
800208ec:	e59f3098 	ldr	r3, [pc, #152]	; 8002098c <binit+0xcc>
800208f0:	e2833a01 	add	r3, r3, #4096	; 0x1000
800208f4:	e1a02003 	mov	r2, r3
800208f8:	e59f3090 	ldr	r3, [pc, #144]	; 80020990 <binit+0xd0>
800208fc:	e5823534 	str	r3, [r2, #1332]	; 0x534
80020900:	e59f308c 	ldr	r3, [pc, #140]	; 80020994 <binit+0xd4>
80020904:	e50b3008 	str	r3, [fp, #-8]
80020908:	ea000017 	b	8002096c <binit+0xac>
8002090c:	e59f3078 	ldr	r3, [pc, #120]	; 8002098c <binit+0xcc>
80020910:	e2833a01 	add	r3, r3, #4096	; 0x1000
80020914:	e5932534 	ldr	r2, [r3, #1332]	; 0x534
80020918:	e51b3008 	ldr	r3, [fp, #-8]
8002091c:	e5832010 	str	r2, [r3, #16]
80020920:	e51b3008 	ldr	r3, [fp, #-8]
80020924:	e59f2064 	ldr	r2, [pc, #100]	; 80020990 <binit+0xd0>
80020928:	e583200c 	str	r2, [r3, #12]
8002092c:	e51b3008 	ldr	r3, [fp, #-8]
80020930:	e3e02000 	mvn	r2, #0
80020934:	e5832004 	str	r2, [r3, #4]
80020938:	e59f304c 	ldr	r3, [pc, #76]	; 8002098c <binit+0xcc>
8002093c:	e2833a01 	add	r3, r3, #4096	; 0x1000
80020940:	e5933534 	ldr	r3, [r3, #1332]	; 0x534
80020944:	e51b2008 	ldr	r2, [fp, #-8]
80020948:	e583200c 	str	r2, [r3, #12]
8002094c:	e59f3038 	ldr	r3, [pc, #56]	; 8002098c <binit+0xcc>
80020950:	e2833a01 	add	r3, r3, #4096	; 0x1000
80020954:	e1a02003 	mov	r2, r3
80020958:	e51b3008 	ldr	r3, [fp, #-8]
8002095c:	e5823534 	str	r3, [r2, #1332]	; 0x534
80020960:	e51b3008 	ldr	r3, [fp, #-8]
80020964:	e2833f86 	add	r3, r3, #536	; 0x218
80020968:	e50b3008 	str	r3, [fp, #-8]
8002096c:	e59f201c 	ldr	r2, [pc, #28]	; 80020990 <binit+0xd0>
80020970:	e51b3008 	ldr	r3, [fp, #-8]
80020974:	e1530002 	cmp	r3, r2
80020978:	3affffe3 	bcc	8002090c <binit+0x4c>
8002097c:	e1a00000 	nop			; (mov r0, r0)
80020980:	e24bd004 	sub	sp, fp, #4
80020984:	e8bd8800 	pop	{fp, pc}
80020988:	8002a06c 	.word	0x8002a06c
8002098c:	800ab0d4 	.word	0x800ab0d4
80020990:	800ac5f8 	.word	0x800ac5f8
80020994:	800ab108 	.word	0x800ab108

80020998 <bget>:
80020998:	e92d4800 	push	{fp, lr}
8002099c:	e28db004 	add	fp, sp, #4
800209a0:	e24dd010 	sub	sp, sp, #16
800209a4:	e50b0010 	str	r0, [fp, #-16]
800209a8:	e50b1014 	str	r1, [fp, #-20]	; 0xffffffec
800209ac:	e59f0140 	ldr	r0, [pc, #320]	; 80020af4 <bget+0x15c>
800209b0:	eb001510 	bl	80025df8 <acquire>
800209b4:	e59f3138 	ldr	r3, [pc, #312]	; 80020af4 <bget+0x15c>
800209b8:	e2833a01 	add	r3, r3, #4096	; 0x1000
800209bc:	e5933534 	ldr	r3, [r3, #1332]	; 0x534
800209c0:	e50b3008 	str	r3, [fp, #-8]
800209c4:	ea00001e 	b	80020a44 <bget+0xac>
800209c8:	e51b3008 	ldr	r3, [fp, #-8]
800209cc:	e5933004 	ldr	r3, [r3, #4]
800209d0:	e51b2010 	ldr	r2, [fp, #-16]
800209d4:	e1520003 	cmp	r2, r3
800209d8:	1a000016 	bne	80020a38 <bget+0xa0>
800209dc:	e51b3008 	ldr	r3, [fp, #-8]
800209e0:	e5933008 	ldr	r3, [r3, #8]
800209e4:	e51b2014 	ldr	r2, [fp, #-20]	; 0xffffffec
800209e8:	e1520003 	cmp	r2, r3
800209ec:	1a000011 	bne	80020a38 <bget+0xa0>
800209f0:	e51b3008 	ldr	r3, [fp, #-8]
800209f4:	e5933000 	ldr	r3, [r3]
800209f8:	e2033001 	and	r3, r3, #1
800209fc:	e3530000 	cmp	r3, #0
80020a00:	1a000008 	bne	80020a28 <bget+0x90>
80020a04:	e51b3008 	ldr	r3, [fp, #-8]
80020a08:	e5933000 	ldr	r3, [r3]
80020a0c:	e3832001 	orr	r2, r3, #1
80020a10:	e51b3008 	ldr	r3, [fp, #-8]
80020a14:	e5832000 	str	r2, [r3]
80020a18:	e59f00d4 	ldr	r0, [pc, #212]	; 80020af4 <bget+0x15c>
80020a1c:	eb001500 	bl	80025e24 <release>
80020a20:	e51b3008 	ldr	r3, [fp, #-8]
80020a24:	ea00002f 	b	80020ae8 <bget+0x150>
80020a28:	e59f10c4 	ldr	r1, [pc, #196]	; 80020af4 <bget+0x15c>
80020a2c:	e51b0008 	ldr	r0, [fp, #-8]
80020a30:	eb0013a1 	bl	800258bc <sleep>
80020a34:	eaffffde 	b	800209b4 <bget+0x1c>
80020a38:	e51b3008 	ldr	r3, [fp, #-8]
80020a3c:	e5933010 	ldr	r3, [r3, #16]
80020a40:	e50b3008 	str	r3, [fp, #-8]
80020a44:	e51b3008 	ldr	r3, [fp, #-8]
80020a48:	e59f20a8 	ldr	r2, [pc, #168]	; 80020af8 <bget+0x160>
80020a4c:	e1530002 	cmp	r3, r2
80020a50:	1affffdc 	bne	800209c8 <bget+0x30>
80020a54:	e59f3098 	ldr	r3, [pc, #152]	; 80020af4 <bget+0x15c>
80020a58:	e2833a01 	add	r3, r3, #4096	; 0x1000
80020a5c:	e5933530 	ldr	r3, [r3, #1328]	; 0x530
80020a60:	e50b3008 	str	r3, [fp, #-8]
80020a64:	ea000019 	b	80020ad0 <bget+0x138>
80020a68:	e51b3008 	ldr	r3, [fp, #-8]
80020a6c:	e5933000 	ldr	r3, [r3]
80020a70:	e2033001 	and	r3, r3, #1
80020a74:	e3530000 	cmp	r3, #0
80020a78:	1a000011 	bne	80020ac4 <bget+0x12c>
80020a7c:	e51b3008 	ldr	r3, [fp, #-8]
80020a80:	e5933000 	ldr	r3, [r3]
80020a84:	e2033004 	and	r3, r3, #4
80020a88:	e3530000 	cmp	r3, #0
80020a8c:	1a00000c 	bne	80020ac4 <bget+0x12c>
80020a90:	e51b3008 	ldr	r3, [fp, #-8]
80020a94:	e51b2010 	ldr	r2, [fp, #-16]
80020a98:	e5832004 	str	r2, [r3, #4]
80020a9c:	e51b3008 	ldr	r3, [fp, #-8]
80020aa0:	e51b2014 	ldr	r2, [fp, #-20]	; 0xffffffec
80020aa4:	e5832008 	str	r2, [r3, #8]
80020aa8:	e51b3008 	ldr	r3, [fp, #-8]
80020aac:	e3a02001 	mov	r2, #1
80020ab0:	e5832000 	str	r2, [r3]
80020ab4:	e59f0038 	ldr	r0, [pc, #56]	; 80020af4 <bget+0x15c>
80020ab8:	eb0014d9 	bl	80025e24 <release>
80020abc:	e51b3008 	ldr	r3, [fp, #-8]
80020ac0:	ea000008 	b	80020ae8 <bget+0x150>
80020ac4:	e51b3008 	ldr	r3, [fp, #-8]
80020ac8:	e593300c 	ldr	r3, [r3, #12]
80020acc:	e50b3008 	str	r3, [fp, #-8]
80020ad0:	e51b3008 	ldr	r3, [fp, #-8]
80020ad4:	e59f201c 	ldr	r2, [pc, #28]	; 80020af8 <bget+0x160>
80020ad8:	e1530002 	cmp	r3, r2
80020adc:	1affffe1 	bne	80020a68 <bget+0xd0>
80020ae0:	e59f0014 	ldr	r0, [pc, #20]	; 80020afc <bget+0x164>
80020ae4:	eb000415 	bl	80021b40 <panic>
80020ae8:	e1a00003 	mov	r0, r3
80020aec:	e24bd004 	sub	sp, fp, #4
80020af0:	e8bd8800 	pop	{fp, pc}
80020af4:	800ab0d4 	.word	0x800ab0d4
80020af8:	800ac5f8 	.word	0x800ac5f8
80020afc:	8002a074 	.word	0x8002a074

80020b00 <bread>:
80020b00:	e92d4800 	push	{fp, lr}
80020b04:	e28db004 	add	fp, sp, #4
80020b08:	e24dd010 	sub	sp, sp, #16
80020b0c:	e50b0010 	str	r0, [fp, #-16]
80020b10:	e50b1014 	str	r1, [fp, #-20]	; 0xffffffec
80020b14:	e51b1014 	ldr	r1, [fp, #-20]	; 0xffffffec
80020b18:	e51b0010 	ldr	r0, [fp, #-16]
80020b1c:	ebffff9d 	bl	80020998 <bget>
80020b20:	e50b0008 	str	r0, [fp, #-8]
80020b24:	e51b3008 	ldr	r3, [fp, #-8]
80020b28:	e5933000 	ldr	r3, [r3]
80020b2c:	e2033002 	and	r3, r3, #2
80020b30:	e3530000 	cmp	r3, #0
80020b34:	1a000001 	bne	80020b40 <bread+0x40>
80020b38:	e51b0008 	ldr	r0, [fp, #-8]
80020b3c:	eb000f19 	bl	800247a8 <iderw>
80020b40:	e51b3008 	ldr	r3, [fp, #-8]
80020b44:	e1a00003 	mov	r0, r3
80020b48:	e24bd004 	sub	sp, fp, #4
80020b4c:	e8bd8800 	pop	{fp, pc}

80020b50 <bwrite>:
80020b50:	e92d4800 	push	{fp, lr}
80020b54:	e28db004 	add	fp, sp, #4
80020b58:	e24dd008 	sub	sp, sp, #8
80020b5c:	e50b0008 	str	r0, [fp, #-8]
80020b60:	e51b3008 	ldr	r3, [fp, #-8]
80020b64:	e5933000 	ldr	r3, [r3]
80020b68:	e2033001 	and	r3, r3, #1
80020b6c:	e3530000 	cmp	r3, #0
80020b70:	1a000001 	bne	80020b7c <bwrite+0x2c>
80020b74:	e59f0028 	ldr	r0, [pc, #40]	; 80020ba4 <bwrite+0x54>
80020b78:	eb0003f0 	bl	80021b40 <panic>
80020b7c:	e51b3008 	ldr	r3, [fp, #-8]
80020b80:	e5933000 	ldr	r3, [r3]
80020b84:	e3832004 	orr	r2, r3, #4
80020b88:	e51b3008 	ldr	r3, [fp, #-8]
80020b8c:	e5832000 	str	r2, [r3]
80020b90:	e51b0008 	ldr	r0, [fp, #-8]
80020b94:	eb000f03 	bl	800247a8 <iderw>
80020b98:	e1a00000 	nop			; (mov r0, r0)
80020b9c:	e24bd004 	sub	sp, fp, #4
80020ba0:	e8bd8800 	pop	{fp, pc}
80020ba4:	8002a088 	.word	0x8002a088

80020ba8 <brelse>:
80020ba8:	e92d4800 	push	{fp, lr}
80020bac:	e28db004 	add	fp, sp, #4
80020bb0:	e24dd008 	sub	sp, sp, #8
80020bb4:	e50b0008 	str	r0, [fp, #-8]
80020bb8:	e51b3008 	ldr	r3, [fp, #-8]
80020bbc:	e5933000 	ldr	r3, [r3]
80020bc0:	e2033001 	and	r3, r3, #1
80020bc4:	e3530000 	cmp	r3, #0
80020bc8:	1a000001 	bne	80020bd4 <brelse+0x2c>
80020bcc:	e59f00a8 	ldr	r0, [pc, #168]	; 80020c7c <brelse+0xd4>
80020bd0:	eb0003da 	bl	80021b40 <panic>
80020bd4:	e59f00a4 	ldr	r0, [pc, #164]	; 80020c80 <brelse+0xd8>
80020bd8:	eb001486 	bl	80025df8 <acquire>
80020bdc:	e51b3008 	ldr	r3, [fp, #-8]
80020be0:	e5933010 	ldr	r3, [r3, #16]
80020be4:	e51b2008 	ldr	r2, [fp, #-8]
80020be8:	e592200c 	ldr	r2, [r2, #12]
80020bec:	e583200c 	str	r2, [r3, #12]
80020bf0:	e51b3008 	ldr	r3, [fp, #-8]
80020bf4:	e593300c 	ldr	r3, [r3, #12]
80020bf8:	e51b2008 	ldr	r2, [fp, #-8]
80020bfc:	e5922010 	ldr	r2, [r2, #16]
80020c00:	e5832010 	str	r2, [r3, #16]
80020c04:	e59f3074 	ldr	r3, [pc, #116]	; 80020c80 <brelse+0xd8>
80020c08:	e2833a01 	add	r3, r3, #4096	; 0x1000
80020c0c:	e5932534 	ldr	r2, [r3, #1332]	; 0x534
80020c10:	e51b3008 	ldr	r3, [fp, #-8]
80020c14:	e5832010 	str	r2, [r3, #16]
80020c18:	e51b3008 	ldr	r3, [fp, #-8]
80020c1c:	e59f2060 	ldr	r2, [pc, #96]	; 80020c84 <brelse+0xdc>
80020c20:	e583200c 	str	r2, [r3, #12]
80020c24:	e59f3054 	ldr	r3, [pc, #84]	; 80020c80 <brelse+0xd8>
80020c28:	e2833a01 	add	r3, r3, #4096	; 0x1000
80020c2c:	e5933534 	ldr	r3, [r3, #1332]	; 0x534
80020c30:	e51b2008 	ldr	r2, [fp, #-8]
80020c34:	e583200c 	str	r2, [r3, #12]
80020c38:	e59f3040 	ldr	r3, [pc, #64]	; 80020c80 <brelse+0xd8>
80020c3c:	e2833a01 	add	r3, r3, #4096	; 0x1000
80020c40:	e1a02003 	mov	r2, r3
80020c44:	e51b3008 	ldr	r3, [fp, #-8]
80020c48:	e5823534 	str	r3, [r2, #1332]	; 0x534
80020c4c:	e51b3008 	ldr	r3, [fp, #-8]
80020c50:	e5933000 	ldr	r3, [r3]
80020c54:	e3c32001 	bic	r2, r3, #1
80020c58:	e51b3008 	ldr	r3, [fp, #-8]
80020c5c:	e5832000 	str	r2, [r3]
80020c60:	e51b0008 	ldr	r0, [fp, #-8]
80020c64:	eb001368 	bl	80025a0c <wakeup>
80020c68:	e59f0010 	ldr	r0, [pc, #16]	; 80020c80 <brelse+0xd8>
80020c6c:	eb00146c 	bl	80025e24 <release>
80020c70:	e1a00000 	nop			; (mov r0, r0)
80020c74:	e24bd004 	sub	sp, fp, #4
80020c78:	e8bd8800 	pop	{fp, pc}
80020c7c:	8002a090 	.word	0x8002a090
80020c80:	800ab0d4 	.word	0x800ab0d4
80020c84:	800ac5f8 	.word	0x800ac5f8

80020c88 <get_mark>:
80020c88:	e52db004 	push	{fp}		; (str fp, [sp, #-4]!)
80020c8c:	e28db000 	add	fp, sp, #0
80020c90:	e24dd00c 	sub	sp, sp, #12
80020c94:	e50b0008 	str	r0, [fp, #-8]
80020c98:	e50b100c 	str	r1, [fp, #-12]
80020c9c:	e51b3008 	ldr	r3, [fp, #-8]
80020ca0:	e2433006 	sub	r3, r3, #6
80020ca4:	e59f2034 	ldr	r2, [pc, #52]	; 80020ce0 <get_mark+0x58>
80020ca8:	e2833008 	add	r3, r3, #8
80020cac:	e1a03183 	lsl	r3, r3, #3
80020cb0:	e0823003 	add	r3, r2, r3
80020cb4:	e5932004 	ldr	r2, [r3, #4]
80020cb8:	e51b300c 	ldr	r3, [fp, #-12]
80020cbc:	e0823003 	add	r3, r2, r3
80020cc0:	e1a02183 	lsl	r2, r3, #3
80020cc4:	e59f3014 	ldr	r3, [pc, #20]	; 80020ce0 <get_mark+0x58>
80020cc8:	e5933034 	ldr	r3, [r3, #52]	; 0x34
80020ccc:	e0823003 	add	r3, r2, r3
80020cd0:	e1a00003 	mov	r0, r3
80020cd4:	e28bd000 	add	sp, fp, #0
80020cd8:	e49db004 	pop	{fp}		; (ldr fp, [sp], #4)
80020cdc:	e12fff1e 	bx	lr
80020ce0:	800ac810 	.word	0x800ac810

80020ce4 <blkid2mem>:
80020ce4:	e52db004 	push	{fp}		; (str fp, [sp, #-4]!)
80020ce8:	e28db000 	add	fp, sp, #0
80020cec:	e24dd00c 	sub	sp, sp, #12
80020cf0:	e50b0008 	str	r0, [fp, #-8]
80020cf4:	e50b100c 	str	r1, [fp, #-12]
80020cf8:	e59f3020 	ldr	r3, [pc, #32]	; 80020d20 <blkid2mem+0x3c>
80020cfc:	e5933038 	ldr	r3, [r3, #56]	; 0x38
80020d00:	e51b100c 	ldr	r1, [fp, #-12]
80020d04:	e51b2008 	ldr	r2, [fp, #-8]
80020d08:	e1a02211 	lsl	r2, r1, r2
80020d0c:	e0833002 	add	r3, r3, r2
80020d10:	e1a00003 	mov	r0, r3
80020d14:	e28bd000 	add	sp, fp, #0
80020d18:	e49db004 	pop	{fp}		; (ldr fp, [sp], #4)
80020d1c:	e12fff1e 	bx	lr
80020d20:	800ac810 	.word	0x800ac810

80020d24 <mem2blkid>:
80020d24:	e52db004 	push	{fp}		; (str fp, [sp, #-4]!)
80020d28:	e28db000 	add	fp, sp, #0
80020d2c:	e24dd00c 	sub	sp, sp, #12
80020d30:	e50b0008 	str	r0, [fp, #-8]
80020d34:	e50b100c 	str	r1, [fp, #-12]
80020d38:	e51b200c 	ldr	r2, [fp, #-12]
80020d3c:	e59f301c 	ldr	r3, [pc, #28]	; 80020d60 <mem2blkid+0x3c>
80020d40:	e5933038 	ldr	r3, [r3, #56]	; 0x38
80020d44:	e0422003 	sub	r2, r2, r3
80020d48:	e51b3008 	ldr	r3, [fp, #-8]
80020d4c:	e1a03332 	lsr	r3, r2, r3
80020d50:	e1a00003 	mov	r0, r3
80020d54:	e28bd000 	add	sp, fp, #0
80020d58:	e49db004 	pop	{fp}		; (ldr fp, [sp], #4)
80020d5c:	e12fff1e 	bx	lr
80020d60:	800ac810 	.word	0x800ac810

80020d64 <available>:
80020d64:	e52db004 	push	{fp}		; (str fp, [sp, #-4]!)
80020d68:	e28db000 	add	fp, sp, #0
80020d6c:	e24dd00c 	sub	sp, sp, #12
80020d70:	e50b0008 	str	r0, [fp, #-8]
80020d74:	e50b100c 	str	r1, [fp, #-12]
80020d78:	e51b300c 	ldr	r3, [fp, #-12]
80020d7c:	e203301f 	and	r3, r3, #31
80020d80:	e3a02001 	mov	r2, #1
80020d84:	e1a03312 	lsl	r3, r2, r3
80020d88:	e1a02003 	mov	r2, r3
80020d8c:	e51b3008 	ldr	r3, [fp, #-8]
80020d90:	e0033002 	and	r3, r3, r2
80020d94:	e1a00003 	mov	r0, r3
80020d98:	e28bd000 	add	sp, fp, #0
80020d9c:	e49db004 	pop	{fp}		; (ldr fp, [sp], #4)
80020da0:	e12fff1e 	bx	lr

80020da4 <kmem_init>:
80020da4:	e92d4800 	push	{fp, lr}
80020da8:	e28db004 	add	fp, sp, #4
80020dac:	e59f100c 	ldr	r1, [pc, #12]	; 80020dc0 <kmem_init+0x1c>
80020db0:	e59f000c 	ldr	r0, [pc, #12]	; 80020dc4 <kmem_init+0x20>
80020db4:	eb0013fd 	bl	80025db0 <initlock>
80020db8:	e1a00000 	nop			; (mov r0, r0)
80020dbc:	e8bd8800 	pop	{fp, pc}
80020dc0:	8002a098 	.word	0x8002a098
80020dc4:	800ac810 	.word	0x800ac810

80020dc8 <kmem_init2>:
80020dc8:	e92d4800 	push	{fp, lr}
80020dcc:	e28db004 	add	fp, sp, #4
80020dd0:	e24dd028 	sub	sp, sp, #40	; 0x28
80020dd4:	e50b0028 	str	r0, [fp, #-40]	; 0xffffffd8
80020dd8:	e50b102c 	str	r1, [fp, #-44]	; 0xffffffd4
80020ddc:	e51b3028 	ldr	r3, [fp, #-40]	; 0xffffffd8
80020de0:	e59f2178 	ldr	r2, [pc, #376]	; 80020f60 <kmem_init2+0x198>
80020de4:	e5823034 	str	r3, [r2, #52]	; 0x34
80020de8:	e51b302c 	ldr	r3, [fp, #-44]	; 0xffffffd4
80020dec:	e59f216c 	ldr	r2, [pc, #364]	; 80020f60 <kmem_init2+0x198>
80020df0:	e582303c 	str	r3, [r2, #60]	; 0x3c
80020df4:	e59f3164 	ldr	r3, [pc, #356]	; 80020f60 <kmem_init2+0x198>
80020df8:	e593203c 	ldr	r2, [r3, #60]	; 0x3c
80020dfc:	e59f315c 	ldr	r3, [pc, #348]	; 80020f60 <kmem_init2+0x198>
80020e00:	e5933034 	ldr	r3, [r3, #52]	; 0x34
80020e04:	e0423003 	sub	r3, r2, r3
80020e08:	e50b3018 	str	r3, [fp, #-24]	; 0xffffffe8
80020e0c:	e51b3018 	ldr	r3, [fp, #-24]	; 0xffffffe8
80020e10:	e1a038a3 	lsr	r3, r3, #17
80020e14:	e2833001 	add	r3, r3, #1
80020e18:	e50b3014 	str	r3, [fp, #-20]	; 0xffffffec
80020e1c:	e3a03000 	mov	r3, #0
80020e20:	e50b3010 	str	r3, [fp, #-16]
80020e24:	e3a03006 	mov	r3, #6
80020e28:	e50b3008 	str	r3, [fp, #-8]
80020e2c:	ea00002a 	b	80020edc <kmem_init2+0x114>
80020e30:	e51b3008 	ldr	r3, [fp, #-8]
80020e34:	e1a03183 	lsl	r3, r3, #3
80020e38:	e59f2124 	ldr	r2, [pc, #292]	; 80020f64 <kmem_init2+0x19c>
80020e3c:	e0833002 	add	r3, r3, r2
80020e40:	e50b301c 	str	r3, [fp, #-28]	; 0xffffffe4
80020e44:	e51b301c 	ldr	r3, [fp, #-28]	; 0xffffffe4
80020e48:	e51b2010 	ldr	r2, [fp, #-16]
80020e4c:	e5832004 	str	r2, [r3, #4]
80020e50:	e51b301c 	ldr	r3, [fp, #-28]	; 0xffffffe4
80020e54:	e59f210c 	ldr	r2, [pc, #268]	; 80020f68 <kmem_init2+0x1a0>
80020e58:	e5832000 	str	r2, [r3]
80020e5c:	e3a03000 	mov	r3, #0
80020e60:	e50b300c 	str	r3, [fp, #-12]
80020e64:	ea00000e 	b	80020ea4 <kmem_init2+0xdc>
80020e68:	e51b3008 	ldr	r3, [fp, #-8]
80020e6c:	e2833006 	add	r3, r3, #6
80020e70:	e51b100c 	ldr	r1, [fp, #-12]
80020e74:	e1a00003 	mov	r0, r3
80020e78:	ebffff82 	bl	80020c88 <get_mark>
80020e7c:	e50b0020 	str	r0, [fp, #-32]	; 0xffffffe0
80020e80:	e51b3020 	ldr	r3, [fp, #-32]	; 0xffffffe0
80020e84:	e3e02000 	mvn	r2, #0
80020e88:	e5832000 	str	r2, [r3]
80020e8c:	e51b3020 	ldr	r3, [fp, #-32]	; 0xffffffe0
80020e90:	e3a02000 	mov	r2, #0
80020e94:	e5832004 	str	r2, [r3, #4]
80020e98:	e51b300c 	ldr	r3, [fp, #-12]
80020e9c:	e2833001 	add	r3, r3, #1
80020ea0:	e50b300c 	str	r3, [fp, #-12]
80020ea4:	e51b300c 	ldr	r3, [fp, #-12]
80020ea8:	e51b2014 	ldr	r2, [fp, #-20]	; 0xffffffec
80020eac:	e1520003 	cmp	r2, r3
80020eb0:	8affffec 	bhi	80020e68 <kmem_init2+0xa0>
80020eb4:	e51b2010 	ldr	r2, [fp, #-16]
80020eb8:	e51b3014 	ldr	r3, [fp, #-20]	; 0xffffffec
80020ebc:	e0823003 	add	r3, r2, r3
80020ec0:	e50b3010 	str	r3, [fp, #-16]
80020ec4:	e51b3014 	ldr	r3, [fp, #-20]	; 0xffffffec
80020ec8:	e1a03083 	lsl	r3, r3, #1
80020ecc:	e50b3014 	str	r3, [fp, #-20]	; 0xffffffec
80020ed0:	e51b3008 	ldr	r3, [fp, #-8]
80020ed4:	e2433001 	sub	r3, r3, #1
80020ed8:	e50b3008 	str	r3, [fp, #-8]
80020edc:	e51b3008 	ldr	r3, [fp, #-8]
80020ee0:	e3530000 	cmp	r3, #0
80020ee4:	aaffffd1 	bge	80020e30 <kmem_init2+0x68>
80020ee8:	e59f3070 	ldr	r3, [pc, #112]	; 80020f60 <kmem_init2+0x198>
80020eec:	e5932034 	ldr	r2, [r3, #52]	; 0x34
80020ef0:	e51b3010 	ldr	r3, [fp, #-16]
80020ef4:	e1a03183 	lsl	r3, r3, #3
80020ef8:	e0823003 	add	r3, r2, r3
80020efc:	e2833eff 	add	r3, r3, #4080	; 0xff0
80020f00:	e283300f 	add	r3, r3, #15
80020f04:	e3c33eff 	bic	r3, r3, #4080	; 0xff0
80020f08:	e3c3300f 	bic	r3, r3, #15
80020f0c:	e59f204c 	ldr	r2, [pc, #76]	; 80020f60 <kmem_init2+0x198>
80020f10:	e5823038 	str	r3, [r2, #56]	; 0x38
80020f14:	e59f3044 	ldr	r3, [pc, #68]	; 80020f60 <kmem_init2+0x198>
80020f18:	e5933038 	ldr	r3, [r3, #56]	; 0x38
80020f1c:	e50b3008 	str	r3, [fp, #-8]
80020f20:	ea000006 	b	80020f40 <kmem_init2+0x178>
80020f24:	e51b3008 	ldr	r3, [fp, #-8]
80020f28:	e3a0100c 	mov	r1, #12
80020f2c:	e1a00003 	mov	r0, r3
80020f30:	eb00018d 	bl	8002156c <kfree>
80020f34:	e51b3008 	ldr	r3, [fp, #-8]
80020f38:	e2833a01 	add	r3, r3, #4096	; 0x1000
80020f3c:	e50b3008 	str	r3, [fp, #-8]
80020f40:	e59f3018 	ldr	r3, [pc, #24]	; 80020f60 <kmem_init2+0x198>
80020f44:	e593203c 	ldr	r2, [r3, #60]	; 0x3c
80020f48:	e51b3008 	ldr	r3, [fp, #-8]
80020f4c:	e1520003 	cmp	r2, r3
80020f50:	8afffff3 	bhi	80020f24 <kmem_init2+0x15c>
80020f54:	e1a00000 	nop			; (mov r0, r0)
80020f58:	e24bd004 	sub	sp, fp, #4
80020f5c:	e8bd8800 	pop	{fp, pc}
80020f60:	800ac810 	.word	0x800ac810
80020f64:	800ac850 	.word	0x800ac850
80020f68:	0000ffff 	.word	0x0000ffff

80020f6c <unmark_blk>:
80020f6c:	e92d4800 	push	{fp, lr}
80020f70:	e28db004 	add	fp, sp, #4
80020f74:	e24dd020 	sub	sp, sp, #32
80020f78:	e50b0020 	str	r0, [fp, #-32]	; 0xffffffe0
80020f7c:	e50b1024 	str	r1, [fp, #-36]	; 0xffffffdc
80020f80:	e51b3020 	ldr	r3, [fp, #-32]	; 0xffffffe0
80020f84:	e2433006 	sub	r3, r3, #6
80020f88:	e2833008 	add	r3, r3, #8
80020f8c:	e1a03183 	lsl	r3, r3, #3
80020f90:	e59f216c 	ldr	r2, [pc, #364]	; 80021104 <unmark_blk+0x198>
80020f94:	e0833002 	add	r3, r3, r2
80020f98:	e50b3008 	str	r3, [fp, #-8]
80020f9c:	e51b3024 	ldr	r3, [fp, #-36]	; 0xffffffdc
80020fa0:	e1a032c3 	asr	r3, r3, #5
80020fa4:	e1a01003 	mov	r1, r3
80020fa8:	e51b0020 	ldr	r0, [fp, #-32]	; 0xffffffe0
80020fac:	ebffff35 	bl	80020c88 <get_mark>
80020fb0:	e50b000c 	str	r0, [fp, #-12]
80020fb4:	e51b300c 	ldr	r3, [fp, #-12]
80020fb8:	e5933004 	ldr	r3, [r3, #4]
80020fbc:	e51b1024 	ldr	r1, [fp, #-36]	; 0xffffffdc
80020fc0:	e1a00003 	mov	r0, r3
80020fc4:	ebffff66 	bl	80020d64 <available>
80020fc8:	e1a03000 	mov	r3, r0
80020fcc:	e3530000 	cmp	r3, #0
80020fd0:	1a000001 	bne	80020fdc <unmark_blk+0x70>
80020fd4:	e59f012c 	ldr	r0, [pc, #300]	; 80021108 <unmark_blk+0x19c>
80020fd8:	eb0002d8 	bl	80021b40 <panic>
80020fdc:	e51b300c 	ldr	r3, [fp, #-12]
80020fe0:	e5933004 	ldr	r3, [r3, #4]
80020fe4:	e51b2024 	ldr	r2, [fp, #-36]	; 0xffffffdc
80020fe8:	e202201f 	and	r2, r2, #31
80020fec:	e3a01001 	mov	r1, #1
80020ff0:	e1a02211 	lsl	r2, r1, r2
80020ff4:	e1e02002 	mvn	r2, r2
80020ff8:	e0022003 	and	r2, r2, r3
80020ffc:	e51b300c 	ldr	r3, [fp, #-12]
80021000:	e5832004 	str	r2, [r3, #4]
80021004:	e51b300c 	ldr	r3, [fp, #-12]
80021008:	e5933004 	ldr	r3, [r3, #4]
8002100c:	e3530000 	cmp	r3, #0
80021010:	1a000038 	bne	800210f8 <unmark_blk+0x18c>
80021014:	e51b3024 	ldr	r3, [fp, #-36]	; 0xffffffdc
80021018:	e1a032c3 	asr	r3, r3, #5
8002101c:	e50b3024 	str	r3, [fp, #-36]	; 0xffffffdc
80021020:	e51b300c 	ldr	r3, [fp, #-12]
80021024:	e5933000 	ldr	r3, [r3]
80021028:	e1a03823 	lsr	r3, r3, #16
8002102c:	e50b3010 	str	r3, [fp, #-16]
80021030:	e51b300c 	ldr	r3, [fp, #-12]
80021034:	e5933000 	ldr	r3, [r3]
80021038:	e6ff3073 	uxth	r3, r3
8002103c:	e50b3014 	str	r3, [fp, #-20]	; 0xffffffec
80021040:	e51b3010 	ldr	r3, [fp, #-16]
80021044:	e59f20c0 	ldr	r2, [pc, #192]	; 8002110c <unmark_blk+0x1a0>
80021048:	e1530002 	cmp	r3, r2
8002104c:	0a00000d 	beq	80021088 <unmark_blk+0x11c>
80021050:	e51b1010 	ldr	r1, [fp, #-16]
80021054:	e51b0020 	ldr	r0, [fp, #-32]	; 0xffffffe0
80021058:	ebffff0a 	bl	80020c88 <get_mark>
8002105c:	e50b0018 	str	r0, [fp, #-24]	; 0xffffffe8
80021060:	e51b3018 	ldr	r3, [fp, #-24]	; 0xffffffe8
80021064:	e5933000 	ldr	r3, [r3]
80021068:	e1a03823 	lsr	r3, r3, #16
8002106c:	e1a03803 	lsl	r3, r3, #16
80021070:	e51b2014 	ldr	r2, [fp, #-20]	; 0xffffffec
80021074:	e6ff2072 	uxth	r2, r2
80021078:	e1832002 	orr	r2, r3, r2
8002107c:	e51b3018 	ldr	r3, [fp, #-24]	; 0xffffffe8
80021080:	e5832000 	str	r2, [r3]
80021084:	ea000007 	b	800210a8 <unmark_blk+0x13c>
80021088:	e51b3008 	ldr	r3, [fp, #-8]
8002108c:	e5932000 	ldr	r2, [r3]
80021090:	e51b3024 	ldr	r3, [fp, #-36]	; 0xffffffdc
80021094:	e1520003 	cmp	r2, r3
80021098:	1a000002 	bne	800210a8 <unmark_blk+0x13c>
8002109c:	e51b2014 	ldr	r2, [fp, #-20]	; 0xffffffec
800210a0:	e51b3008 	ldr	r3, [fp, #-8]
800210a4:	e5832000 	str	r2, [r3]
800210a8:	e51b3014 	ldr	r3, [fp, #-20]	; 0xffffffec
800210ac:	e59f2058 	ldr	r2, [pc, #88]	; 8002110c <unmark_blk+0x1a0>
800210b0:	e1530002 	cmp	r3, r2
800210b4:	0a00000c 	beq	800210ec <unmark_blk+0x180>
800210b8:	e51b1014 	ldr	r1, [fp, #-20]	; 0xffffffec
800210bc:	e51b0020 	ldr	r0, [fp, #-32]	; 0xffffffe0
800210c0:	ebfffef0 	bl	80020c88 <get_mark>
800210c4:	e50b0018 	str	r0, [fp, #-24]	; 0xffffffe8
800210c8:	e51b3010 	ldr	r3, [fp, #-16]
800210cc:	e1a03803 	lsl	r3, r3, #16
800210d0:	e1a02003 	mov	r2, r3
800210d4:	e51b3018 	ldr	r3, [fp, #-24]	; 0xffffffe8
800210d8:	e5933000 	ldr	r3, [r3]
800210dc:	e6ff3073 	uxth	r3, r3
800210e0:	e1822003 	orr	r2, r2, r3
800210e4:	e51b3018 	ldr	r3, [fp, #-24]	; 0xffffffe8
800210e8:	e5832000 	str	r2, [r3]
800210ec:	e51b300c 	ldr	r3, [fp, #-12]
800210f0:	e3e02000 	mvn	r2, #0
800210f4:	e5832000 	str	r2, [r3]
800210f8:	e1a00000 	nop			; (mov r0, r0)
800210fc:	e24bd004 	sub	sp, fp, #4
80021100:	e8bd8800 	pop	{fp, pc}
80021104:	800ac810 	.word	0x800ac810
80021108:	8002a0a0 	.word	0x8002a0a0
8002110c:	0000ffff 	.word	0x0000ffff

80021110 <mark_blk>:
80021110:	e92d4800 	push	{fp, lr}
80021114:	e28db004 	add	fp, sp, #4
80021118:	e24dd018 	sub	sp, sp, #24
8002111c:	e50b0018 	str	r0, [fp, #-24]	; 0xffffffe8
80021120:	e50b101c 	str	r1, [fp, #-28]	; 0xffffffe4
80021124:	e51b3018 	ldr	r3, [fp, #-24]	; 0xffffffe8
80021128:	e2433006 	sub	r3, r3, #6
8002112c:	e2833008 	add	r3, r3, #8
80021130:	e1a03183 	lsl	r3, r3, #3
80021134:	e59f211c 	ldr	r2, [pc, #284]	; 80021258 <mark_blk+0x148>
80021138:	e0833002 	add	r3, r3, r2
8002113c:	e50b3008 	str	r3, [fp, #-8]
80021140:	e51b301c 	ldr	r3, [fp, #-28]	; 0xffffffe4
80021144:	e1a032c3 	asr	r3, r3, #5
80021148:	e1a01003 	mov	r1, r3
8002114c:	e51b0018 	ldr	r0, [fp, #-24]	; 0xffffffe8
80021150:	ebfffecc 	bl	80020c88 <get_mark>
80021154:	e50b000c 	str	r0, [fp, #-12]
80021158:	e51b300c 	ldr	r3, [fp, #-12]
8002115c:	e5933004 	ldr	r3, [r3, #4]
80021160:	e3530000 	cmp	r3, #0
80021164:	03a03001 	moveq	r3, #1
80021168:	13a03000 	movne	r3, #0
8002116c:	e6ef3073 	uxtb	r3, r3
80021170:	e50b3010 	str	r3, [fp, #-16]
80021174:	e51b300c 	ldr	r3, [fp, #-12]
80021178:	e5933004 	ldr	r3, [r3, #4]
8002117c:	e51b101c 	ldr	r1, [fp, #-28]	; 0xffffffe4
80021180:	e1a00003 	mov	r0, r3
80021184:	ebfffef6 	bl	80020d64 <available>
80021188:	e1a03000 	mov	r3, r0
8002118c:	e3530000 	cmp	r3, #0
80021190:	0a000001 	beq	8002119c <mark_blk+0x8c>
80021194:	e59f00c0 	ldr	r0, [pc, #192]	; 8002125c <mark_blk+0x14c>
80021198:	eb000268 	bl	80021b40 <panic>
8002119c:	e51b300c 	ldr	r3, [fp, #-12]
800211a0:	e5933004 	ldr	r3, [r3, #4]
800211a4:	e51b201c 	ldr	r2, [fp, #-28]	; 0xffffffe4
800211a8:	e202201f 	and	r2, r2, #31
800211ac:	e3a01001 	mov	r1, #1
800211b0:	e1a02211 	lsl	r2, r1, r2
800211b4:	e1832002 	orr	r2, r3, r2
800211b8:	e51b300c 	ldr	r3, [fp, #-12]
800211bc:	e5832004 	str	r2, [r3, #4]
800211c0:	e51b3010 	ldr	r3, [fp, #-16]
800211c4:	e3530000 	cmp	r3, #0
800211c8:	0a00001f 	beq	8002124c <mark_blk+0x13c>
800211cc:	e51b301c 	ldr	r3, [fp, #-28]	; 0xffffffe4
800211d0:	e1a032c3 	asr	r3, r3, #5
800211d4:	e50b301c 	str	r3, [fp, #-28]	; 0xffffffe4
800211d8:	e51b3008 	ldr	r3, [fp, #-8]
800211dc:	e5933000 	ldr	r3, [r3]
800211e0:	e1e03803 	mvn	r3, r3, lsl #16
800211e4:	e1e03823 	mvn	r3, r3, lsr #16
800211e8:	e51b200c 	ldr	r2, [fp, #-12]
800211ec:	e5823000 	str	r3, [r2]
800211f0:	e51b3008 	ldr	r3, [fp, #-8]
800211f4:	e5933000 	ldr	r3, [r3]
800211f8:	e59f2060 	ldr	r2, [pc, #96]	; 80021260 <mark_blk+0x150>
800211fc:	e1530002 	cmp	r3, r2
80021200:	0a00000e 	beq	80021240 <mark_blk+0x130>
80021204:	e51b3008 	ldr	r3, [fp, #-8]
80021208:	e5933000 	ldr	r3, [r3]
8002120c:	e1a01003 	mov	r1, r3
80021210:	e51b0018 	ldr	r0, [fp, #-24]	; 0xffffffe8
80021214:	ebfffe9b 	bl	80020c88 <get_mark>
80021218:	e50b0014 	str	r0, [fp, #-20]	; 0xffffffec
8002121c:	e51b301c 	ldr	r3, [fp, #-28]	; 0xffffffe4
80021220:	e1a03803 	lsl	r3, r3, #16
80021224:	e1a02003 	mov	r2, r3
80021228:	e51b3014 	ldr	r3, [fp, #-20]	; 0xffffffec
8002122c:	e5933000 	ldr	r3, [r3]
80021230:	e6ff3073 	uxth	r3, r3
80021234:	e1822003 	orr	r2, r2, r3
80021238:	e51b3014 	ldr	r3, [fp, #-20]	; 0xffffffec
8002123c:	e5832000 	str	r2, [r3]
80021240:	e51b201c 	ldr	r2, [fp, #-28]	; 0xffffffe4
80021244:	e51b3008 	ldr	r3, [fp, #-8]
80021248:	e5832000 	str	r2, [r3]
8002124c:	e1a00000 	nop			; (mov r0, r0)
80021250:	e24bd004 	sub	sp, fp, #4
80021254:	e8bd8800 	pop	{fp, pc}
80021258:	800ac810 	.word	0x800ac810
8002125c:	8002a0b0 	.word	0x8002a0b0
80021260:	0000ffff 	.word	0x0000ffff

80021264 <get_blk>:
80021264:	e92d4800 	push	{fp, lr}
80021268:	e28db004 	add	fp, sp, #4
8002126c:	e24dd018 	sub	sp, sp, #24
80021270:	e50b0018 	str	r0, [fp, #-24]	; 0xffffffe8
80021274:	e51b3018 	ldr	r3, [fp, #-24]	; 0xffffffe8
80021278:	e2433006 	sub	r3, r3, #6
8002127c:	e2833008 	add	r3, r3, #8
80021280:	e1a03183 	lsl	r3, r3, #3
80021284:	e59f20c0 	ldr	r2, [pc, #192]	; 8002134c <get_blk+0xe8>
80021288:	e0833002 	add	r3, r3, r2
8002128c:	e50b300c 	str	r3, [fp, #-12]
80021290:	e51b300c 	ldr	r3, [fp, #-12]
80021294:	e5933000 	ldr	r3, [r3]
80021298:	e1a01003 	mov	r1, r3
8002129c:	e51b0018 	ldr	r0, [fp, #-24]	; 0xffffffe8
800212a0:	ebfffe78 	bl	80020c88 <get_mark>
800212a4:	e50b0010 	str	r0, [fp, #-16]
800212a8:	e51b3010 	ldr	r3, [fp, #-16]
800212ac:	e5933004 	ldr	r3, [r3, #4]
800212b0:	e3530000 	cmp	r3, #0
800212b4:	1a000001 	bne	800212c0 <get_blk+0x5c>
800212b8:	e59f0090 	ldr	r0, [pc, #144]	; 80021350 <get_blk+0xec>
800212bc:	eb00021f 	bl	80021b40 <panic>
800212c0:	e3a03000 	mov	r3, #0
800212c4:	e50b3008 	str	r3, [fp, #-8]
800212c8:	ea000018 	b	80021330 <get_blk+0xcc>
800212cc:	e51b3010 	ldr	r3, [fp, #-16]
800212d0:	e5933004 	ldr	r3, [r3, #4]
800212d4:	e3a01001 	mov	r1, #1
800212d8:	e51b2008 	ldr	r2, [fp, #-8]
800212dc:	e1a02211 	lsl	r2, r1, r2
800212e0:	e0033002 	and	r3, r3, r2
800212e4:	e3530000 	cmp	r3, #0
800212e8:	0a00000d 	beq	80021324 <get_blk+0xc0>
800212ec:	e51b300c 	ldr	r3, [fp, #-12]
800212f0:	e5933000 	ldr	r3, [r3]
800212f4:	e1a02283 	lsl	r2, r3, #5
800212f8:	e51b3008 	ldr	r3, [fp, #-8]
800212fc:	e0823003 	add	r3, r2, r3
80021300:	e50b3014 	str	r3, [fp, #-20]	; 0xffffffec
80021304:	e51b1014 	ldr	r1, [fp, #-20]	; 0xffffffec
80021308:	e51b0018 	ldr	r0, [fp, #-24]	; 0xffffffe8
8002130c:	ebffff16 	bl	80020f6c <unmark_blk>
80021310:	e51b1014 	ldr	r1, [fp, #-20]	; 0xffffffec
80021314:	e51b0018 	ldr	r0, [fp, #-24]	; 0xffffffe8
80021318:	ebfffe71 	bl	80020ce4 <blkid2mem>
8002131c:	e1a03000 	mov	r3, r0
80021320:	ea000006 	b	80021340 <get_blk+0xdc>
80021324:	e51b3008 	ldr	r3, [fp, #-8]
80021328:	e2833001 	add	r3, r3, #1
8002132c:	e50b3008 	str	r3, [fp, #-8]
80021330:	e51b3008 	ldr	r3, [fp, #-8]
80021334:	e353001f 	cmp	r3, #31
80021338:	daffffe3 	ble	800212cc <get_blk+0x68>
8002133c:	e3a03000 	mov	r3, #0
80021340:	e1a00003 	mov	r0, r3
80021344:	e24bd004 	sub	sp, fp, #4
80021348:	e8bd8800 	pop	{fp, pc}
8002134c:	800ac810 	.word	0x800ac810
80021350:	8002a0c0 	.word	0x8002a0c0

80021354 <_kmalloc>:
80021354:	e92d4800 	push	{fp, lr}
80021358:	e28db004 	add	fp, sp, #4
8002135c:	e24dd010 	sub	sp, sp, #16
80021360:	e50b0010 	str	r0, [fp, #-16]
80021364:	e51b3010 	ldr	r3, [fp, #-16]
80021368:	e2433006 	sub	r3, r3, #6
8002136c:	e2833008 	add	r3, r3, #8
80021370:	e1a03183 	lsl	r3, r3, #3
80021374:	e59f2090 	ldr	r2, [pc, #144]	; 8002140c <_kmalloc+0xb8>
80021378:	e0833002 	add	r3, r3, r2
8002137c:	e50b300c 	str	r3, [fp, #-12]
80021380:	e3a03000 	mov	r3, #0
80021384:	e50b3008 	str	r3, [fp, #-8]
80021388:	e51b300c 	ldr	r3, [fp, #-12]
8002138c:	e5933000 	ldr	r3, [r3]
80021390:	e59f2078 	ldr	r2, [pc, #120]	; 80021410 <_kmalloc+0xbc>
80021394:	e1530002 	cmp	r3, r2
80021398:	0a000003 	beq	800213ac <_kmalloc+0x58>
8002139c:	e51b0010 	ldr	r0, [fp, #-16]
800213a0:	ebffffaf 	bl	80021264 <get_blk>
800213a4:	e50b0008 	str	r0, [fp, #-8]
800213a8:	ea000013 	b	800213fc <_kmalloc+0xa8>
800213ac:	e51b3010 	ldr	r3, [fp, #-16]
800213b0:	e353000b 	cmp	r3, #11
800213b4:	ca000010 	bgt	800213fc <_kmalloc+0xa8>
800213b8:	e51b3010 	ldr	r3, [fp, #-16]
800213bc:	e2833001 	add	r3, r3, #1
800213c0:	e1a00003 	mov	r0, r3
800213c4:	ebffffe2 	bl	80021354 <_kmalloc>
800213c8:	e50b0008 	str	r0, [fp, #-8]
800213cc:	e51b3008 	ldr	r3, [fp, #-8]
800213d0:	e3530000 	cmp	r3, #0
800213d4:	0a000008 	beq	800213fc <_kmalloc+0xa8>
800213d8:	e3a02001 	mov	r2, #1
800213dc:	e51b3010 	ldr	r3, [fp, #-16]
800213e0:	e1a03312 	lsl	r3, r2, r3
800213e4:	e1a02003 	mov	r2, r3
800213e8:	e51b3008 	ldr	r3, [fp, #-8]
800213ec:	e0833002 	add	r3, r3, r2
800213f0:	e51b1010 	ldr	r1, [fp, #-16]
800213f4:	e1a00003 	mov	r0, r3
800213f8:	eb00001e 	bl	80021478 <_kfree>
800213fc:	e51b3008 	ldr	r3, [fp, #-8]
80021400:	e1a00003 	mov	r0, r3
80021404:	e24bd004 	sub	sp, fp, #4
80021408:	e8bd8800 	pop	{fp, pc}
8002140c:	800ac810 	.word	0x800ac810
80021410:	0000ffff 	.word	0x0000ffff

80021414 <kmalloc>:
80021414:	e92d4800 	push	{fp, lr}
80021418:	e28db004 	add	fp, sp, #4
8002141c:	e24dd010 	sub	sp, sp, #16
80021420:	e50b0010 	str	r0, [fp, #-16]
80021424:	e51b3010 	ldr	r3, [fp, #-16]
80021428:	e353000c 	cmp	r3, #12
8002142c:	ca000002 	bgt	8002143c <kmalloc+0x28>
80021430:	e51b3010 	ldr	r3, [fp, #-16]
80021434:	e3530005 	cmp	r3, #5
80021438:	ca000001 	bgt	80021444 <kmalloc+0x30>
8002143c:	e59f002c 	ldr	r0, [pc, #44]	; 80021470 <kmalloc+0x5c>
80021440:	eb0001be 	bl	80021b40 <panic>
80021444:	e59f0028 	ldr	r0, [pc, #40]	; 80021474 <kmalloc+0x60>
80021448:	eb00126a 	bl	80025df8 <acquire>
8002144c:	e51b0010 	ldr	r0, [fp, #-16]
80021450:	ebffffbf 	bl	80021354 <_kmalloc>
80021454:	e50b0008 	str	r0, [fp, #-8]
80021458:	e59f0014 	ldr	r0, [pc, #20]	; 80021474 <kmalloc+0x60>
8002145c:	eb001270 	bl	80025e24 <release>
80021460:	e51b3008 	ldr	r3, [fp, #-8]
80021464:	e1a00003 	mov	r0, r3
80021468:	e24bd004 	sub	sp, fp, #4
8002146c:	e8bd8800 	pop	{fp, pc}
80021470:	8002a0d8 	.word	0x8002a0d8
80021474:	800ac810 	.word	0x800ac810

80021478 <_kfree>:
80021478:	e92d4800 	push	{fp, lr}
8002147c:	e28db004 	add	fp, sp, #4
80021480:	e24dd018 	sub	sp, sp, #24
80021484:	e50b0018 	str	r0, [fp, #-24]	; 0xffffffe8
80021488:	e50b101c 	str	r1, [fp, #-28]	; 0xffffffe4
8002148c:	e51b1018 	ldr	r1, [fp, #-24]	; 0xffffffe8
80021490:	e51b001c 	ldr	r0, [fp, #-28]	; 0xffffffe4
80021494:	ebfffe22 	bl	80020d24 <mem2blkid>
80021498:	e50b0008 	str	r0, [fp, #-8]
8002149c:	e51b3008 	ldr	r3, [fp, #-8]
800214a0:	e1a032c3 	asr	r3, r3, #5
800214a4:	e1a01003 	mov	r1, r3
800214a8:	e51b001c 	ldr	r0, [fp, #-28]	; 0xffffffe4
800214ac:	ebfffdf5 	bl	80020c88 <get_mark>
800214b0:	e50b000c 	str	r0, [fp, #-12]
800214b4:	e51b300c 	ldr	r3, [fp, #-12]
800214b8:	e5933004 	ldr	r3, [r3, #4]
800214bc:	e51b1008 	ldr	r1, [fp, #-8]
800214c0:	e1a00003 	mov	r0, r3
800214c4:	ebfffe26 	bl	80020d64 <available>
800214c8:	e1a03000 	mov	r3, r0
800214cc:	e3530000 	cmp	r3, #0
800214d0:	0a000001 	beq	800214dc <_kfree+0x64>
800214d4:	e59f008c 	ldr	r0, [pc, #140]	; 80021568 <_kfree+0xf0>
800214d8:	eb000198 	bl	80021b40 <panic>
800214dc:	e51b3008 	ldr	r3, [fp, #-8]
800214e0:	e2233001 	eor	r3, r3, #1
800214e4:	e50b3010 	str	r3, [fp, #-16]
800214e8:	e51b300c 	ldr	r3, [fp, #-12]
800214ec:	e5933004 	ldr	r3, [r3, #4]
800214f0:	e51b1010 	ldr	r1, [fp, #-16]
800214f4:	e1a00003 	mov	r0, r3
800214f8:	ebfffe19 	bl	80020d64 <available>
800214fc:	e1a03000 	mov	r3, r0
80021500:	e3530000 	cmp	r3, #0
80021504:	0a000002 	beq	80021514 <_kfree+0x9c>
80021508:	e51b301c 	ldr	r3, [fp, #-28]	; 0xffffffe4
8002150c:	e353000c 	cmp	r3, #12
80021510:	1a000003 	bne	80021524 <_kfree+0xac>
80021514:	e51b1008 	ldr	r1, [fp, #-8]
80021518:	e51b001c 	ldr	r0, [fp, #-28]	; 0xffffffe4
8002151c:	ebfffefb 	bl	80021110 <mark_blk>
80021520:	ea00000d 	b	8002155c <_kfree+0xe4>
80021524:	e51b1010 	ldr	r1, [fp, #-16]
80021528:	e51b001c 	ldr	r0, [fp, #-28]	; 0xffffffe4
8002152c:	ebfffe8e 	bl	80020f6c <unmark_blk>
80021530:	e51b3008 	ldr	r3, [fp, #-8]
80021534:	e3c33001 	bic	r3, r3, #1
80021538:	e1a01003 	mov	r1, r3
8002153c:	e51b001c 	ldr	r0, [fp, #-28]	; 0xffffffe4
80021540:	ebfffde7 	bl	80020ce4 <blkid2mem>
80021544:	e1a02000 	mov	r2, r0
80021548:	e51b301c 	ldr	r3, [fp, #-28]	; 0xffffffe4
8002154c:	e2833001 	add	r3, r3, #1
80021550:	e1a01003 	mov	r1, r3
80021554:	e1a00002 	mov	r0, r2
80021558:	ebffffc6 	bl	80021478 <_kfree>
8002155c:	e1a00000 	nop			; (mov r0, r0)
80021560:	e24bd004 	sub	sp, fp, #4
80021564:	e8bd8800 	pop	{fp, pc}
80021568:	8002a0f8 	.word	0x8002a0f8

8002156c <kfree>:
8002156c:	e92d4800 	push	{fp, lr}
80021570:	e28db004 	add	fp, sp, #4
80021574:	e24dd008 	sub	sp, sp, #8
80021578:	e50b0008 	str	r0, [fp, #-8]
8002157c:	e50b100c 	str	r1, [fp, #-12]
80021580:	e51b300c 	ldr	r3, [fp, #-12]
80021584:	e353000c 	cmp	r3, #12
80021588:	ca00000b 	bgt	800215bc <kfree+0x50>
8002158c:	e51b300c 	ldr	r3, [fp, #-12]
80021590:	e3530005 	cmp	r3, #5
80021594:	da000008 	ble	800215bc <kfree+0x50>
80021598:	e3a02001 	mov	r2, #1
8002159c:	e51b300c 	ldr	r3, [fp, #-12]
800215a0:	e1a03312 	lsl	r3, r2, r3
800215a4:	e2433001 	sub	r3, r3, #1
800215a8:	e1a02003 	mov	r2, r3
800215ac:	e51b3008 	ldr	r3, [fp, #-8]
800215b0:	e0033002 	and	r3, r3, r2
800215b4:	e3530000 	cmp	r3, #0
800215b8:	0a000001 	beq	800215c4 <kfree+0x58>
800215bc:	e59f0028 	ldr	r0, [pc, #40]	; 800215ec <kfree+0x80>
800215c0:	eb00015e 	bl	80021b40 <panic>
800215c4:	e59f0024 	ldr	r0, [pc, #36]	; 800215f0 <kfree+0x84>
800215c8:	eb00120a 	bl	80025df8 <acquire>
800215cc:	e51b100c 	ldr	r1, [fp, #-12]
800215d0:	e51b0008 	ldr	r0, [fp, #-8]
800215d4:	ebffffa7 	bl	80021478 <_kfree>
800215d8:	e59f0010 	ldr	r0, [pc, #16]	; 800215f0 <kfree+0x84>
800215dc:	eb001210 	bl	80025e24 <release>
800215e0:	e1a00000 	nop			; (mov r0, r0)
800215e4:	e24bd004 	sub	sp, fp, #4
800215e8:	e8bd8800 	pop	{fp, pc}
800215ec:	8002a10c 	.word	0x8002a10c
800215f0:	800ac810 	.word	0x800ac810

800215f4 <free_page>:
800215f4:	e92d4800 	push	{fp, lr}
800215f8:	e28db004 	add	fp, sp, #4
800215fc:	e24dd008 	sub	sp, sp, #8
80021600:	e50b0008 	str	r0, [fp, #-8]
80021604:	e3a0100c 	mov	r1, #12
80021608:	e51b0008 	ldr	r0, [fp, #-8]
8002160c:	ebffffd6 	bl	8002156c <kfree>
80021610:	e1a00000 	nop			; (mov r0, r0)
80021614:	e24bd004 	sub	sp, fp, #4
80021618:	e8bd8800 	pop	{fp, pc}

8002161c <alloc_page>:
8002161c:	e92d4800 	push	{fp, lr}
80021620:	e28db004 	add	fp, sp, #4
80021624:	e3a0000c 	mov	r0, #12
80021628:	ebffff79 	bl	80021414 <kmalloc>
8002162c:	e1a03000 	mov	r3, r0
80021630:	e1a00003 	mov	r0, r3
80021634:	e8bd8800 	pop	{fp, pc}

80021638 <get_order>:
80021638:	e92d4800 	push	{fp, lr}
8002163c:	e28db004 	add	fp, sp, #4
80021640:	e24dd010 	sub	sp, sp, #16
80021644:	e50b0010 	str	r0, [fp, #-16]
80021648:	e51b3010 	ldr	r3, [fp, #-16]
8002164c:	e2433001 	sub	r3, r3, #1
80021650:	e50b3010 	str	r3, [fp, #-16]
80021654:	e51b3010 	ldr	r3, [fp, #-16]
80021658:	e1a030a3 	lsr	r3, r3, #1
8002165c:	e51b2010 	ldr	r2, [fp, #-16]
80021660:	e1823003 	orr	r3, r2, r3
80021664:	e50b3010 	str	r3, [fp, #-16]
80021668:	e51b3010 	ldr	r3, [fp, #-16]
8002166c:	e1a03123 	lsr	r3, r3, #2
80021670:	e51b2010 	ldr	r2, [fp, #-16]
80021674:	e1823003 	orr	r3, r2, r3
80021678:	e50b3010 	str	r3, [fp, #-16]
8002167c:	e51b3010 	ldr	r3, [fp, #-16]
80021680:	e1a03223 	lsr	r3, r3, #4
80021684:	e51b2010 	ldr	r2, [fp, #-16]
80021688:	e1823003 	orr	r3, r2, r3
8002168c:	e50b3010 	str	r3, [fp, #-16]
80021690:	e51b3010 	ldr	r3, [fp, #-16]
80021694:	e1a03423 	lsr	r3, r3, #8
80021698:	e51b2010 	ldr	r2, [fp, #-16]
8002169c:	e1823003 	orr	r3, r2, r3
800216a0:	e50b3010 	str	r3, [fp, #-16]
800216a4:	e51b3010 	ldr	r3, [fp, #-16]
800216a8:	e1a03823 	lsr	r3, r3, #16
800216ac:	e51b2010 	ldr	r2, [fp, #-16]
800216b0:	e1823003 	orr	r3, r2, r3
800216b4:	e50b3010 	str	r3, [fp, #-16]
800216b8:	e51b3010 	ldr	r3, [fp, #-16]
800216bc:	e2833001 	add	r3, r3, #1
800216c0:	e50b3010 	str	r3, [fp, #-16]
800216c4:	e3a03000 	mov	r3, #0
800216c8:	e50b3008 	str	r3, [fp, #-8]
800216cc:	ea00000a 	b	800216fc <get_order+0xc4>
800216d0:	e3a02001 	mov	r2, #1
800216d4:	e51b3008 	ldr	r3, [fp, #-8]
800216d8:	e1a03312 	lsl	r3, r2, r3
800216dc:	e1a02003 	mov	r2, r3
800216e0:	e51b3010 	ldr	r3, [fp, #-16]
800216e4:	e0033002 	and	r3, r3, r2
800216e8:	e3530000 	cmp	r3, #0
800216ec:	1a000006 	bne	8002170c <get_order+0xd4>
800216f0:	e51b3008 	ldr	r3, [fp, #-8]
800216f4:	e2833001 	add	r3, r3, #1
800216f8:	e50b3008 	str	r3, [fp, #-8]
800216fc:	e51b3008 	ldr	r3, [fp, #-8]
80021700:	e353001f 	cmp	r3, #31
80021704:	9afffff1 	bls	800216d0 <get_order+0x98>
80021708:	ea000000 	b	80021710 <get_order+0xd8>
8002170c:	e1a00000 	nop			; (mov r0, r0)
80021710:	e51b3008 	ldr	r3, [fp, #-8]
80021714:	e3530005 	cmp	r3, #5
80021718:	8a000002 	bhi	80021728 <get_order+0xf0>
8002171c:	e3a03006 	mov	r3, #6
80021720:	e50b3008 	str	r3, [fp, #-8]
80021724:	ea000004 	b	8002173c <get_order+0x104>
80021728:	e51b3008 	ldr	r3, [fp, #-8]
8002172c:	e353000c 	cmp	r3, #12
80021730:	9a000001 	bls	8002173c <get_order+0x104>
80021734:	e59f0010 	ldr	r0, [pc, #16]	; 8002174c <get_order+0x114>
80021738:	eb000100 	bl	80021b40 <panic>
8002173c:	e51b3008 	ldr	r3, [fp, #-8]
80021740:	e1a00003 	mov	r0, r3
80021744:	e24bd004 	sub	sp, fp, #4
80021748:	e8bd8800 	pop	{fp, pc}
8002174c:	8002a13c 	.word	0x8002a13c

80021750 <kmemfree>:
80021750:	e92d4800 	push	{fp, lr}
80021754:	e28db004 	add	fp, sp, #4
80021758:	e24dd018 	sub	sp, sp, #24
8002175c:	e3a03000 	mov	r3, #0
80021760:	e50b3010 	str	r3, [fp, #-16]
80021764:	e59f309c 	ldr	r3, [pc, #156]	; 80021808 <kmemfree+0xb8>
80021768:	e50b3014 	str	r3, [fp, #-20]	; 0xffffffec
8002176c:	e51b3014 	ldr	r3, [fp, #-20]	; 0xffffffec
80021770:	e5933000 	ldr	r3, [r3]
80021774:	e50b3008 	str	r3, [fp, #-8]
80021778:	ea00001a 	b	800217e8 <kmemfree+0x98>
8002177c:	e51b1008 	ldr	r1, [fp, #-8]
80021780:	e3a0000c 	mov	r0, #12
80021784:	ebfffd3f 	bl	80020c88 <get_mark>
80021788:	e50b0018 	str	r0, [fp, #-24]	; 0xffffffe8
8002178c:	e3a03000 	mov	r3, #0
80021790:	e50b300c 	str	r3, [fp, #-12]
80021794:	ea00000c 	b	800217cc <kmemfree+0x7c>
80021798:	e51b3018 	ldr	r3, [fp, #-24]	; 0xffffffe8
8002179c:	e5932004 	ldr	r2, [r3, #4]
800217a0:	e51b300c 	ldr	r3, [fp, #-12]
800217a4:	e1a03332 	lsr	r3, r2, r3
800217a8:	e2033001 	and	r3, r3, #1
800217ac:	e3530000 	cmp	r3, #0
800217b0:	0a000002 	beq	800217c0 <kmemfree+0x70>
800217b4:	e51b3010 	ldr	r3, [fp, #-16]
800217b8:	e2833001 	add	r3, r3, #1
800217bc:	e50b3010 	str	r3, [fp, #-16]
800217c0:	e51b300c 	ldr	r3, [fp, #-12]
800217c4:	e2833001 	add	r3, r3, #1
800217c8:	e50b300c 	str	r3, [fp, #-12]
800217cc:	e51b300c 	ldr	r3, [fp, #-12]
800217d0:	e353001f 	cmp	r3, #31
800217d4:	daffffef 	ble	80021798 <kmemfree+0x48>
800217d8:	e51b3018 	ldr	r3, [fp, #-24]	; 0xffffffe8
800217dc:	e5933000 	ldr	r3, [r3]
800217e0:	e6ff3073 	uxth	r3, r3
800217e4:	e50b3008 	str	r3, [fp, #-8]
800217e8:	e51b3008 	ldr	r3, [fp, #-8]
800217ec:	e59f2018 	ldr	r2, [pc, #24]	; 8002180c <kmemfree+0xbc>
800217f0:	e1530002 	cmp	r3, r2
800217f4:	1affffe0 	bne	8002177c <kmemfree+0x2c>
800217f8:	e51b3010 	ldr	r3, [fp, #-16]
800217fc:	e1a00003 	mov	r0, r3
80021800:	e24bd004 	sub	sp, fp, #4
80021804:	e8bd8800 	pop	{fp, pc}
80021808:	800ac880 	.word	0x800ac880
8002180c:	0000ffff 	.word	0x0000ffff

80021810 <printint>:
80021810:	e92d4800 	push	{fp, lr}
80021814:	e28db004 	add	fp, sp, #4
80021818:	e24dd028 	sub	sp, sp, #40	; 0x28
8002181c:	e50b0020 	str	r0, [fp, #-32]	; 0xffffffe0
80021820:	e50b1024 	str	r1, [fp, #-36]	; 0xffffffdc
80021824:	e50b2028 	str	r2, [fp, #-40]	; 0xffffffd8
80021828:	e51b3028 	ldr	r3, [fp, #-40]	; 0xffffffd8
8002182c:	e3530000 	cmp	r3, #0
80021830:	0a00000a 	beq	80021860 <printint+0x50>
80021834:	e51b3020 	ldr	r3, [fp, #-32]	; 0xffffffe0
80021838:	e1a03fa3 	lsr	r3, r3, #31
8002183c:	e6ef3073 	uxtb	r3, r3
80021840:	e50b3028 	str	r3, [fp, #-40]	; 0xffffffd8
80021844:	e51b3028 	ldr	r3, [fp, #-40]	; 0xffffffd8
80021848:	e3530000 	cmp	r3, #0
8002184c:	0a000003 	beq	80021860 <printint+0x50>
80021850:	e51b3020 	ldr	r3, [fp, #-32]	; 0xffffffe0
80021854:	e2633000 	rsb	r3, r3, #0
80021858:	e50b300c 	str	r3, [fp, #-12]
8002185c:	ea000001 	b	80021868 <printint+0x58>
80021860:	e51b3020 	ldr	r3, [fp, #-32]	; 0xffffffe0
80021864:	e50b300c 	str	r3, [fp, #-12]
80021868:	e3a03000 	mov	r3, #0
8002186c:	e50b3008 	str	r3, [fp, #-8]
80021870:	e51b2024 	ldr	r2, [fp, #-36]	; 0xffffffdc
80021874:	e51b300c 	ldr	r3, [fp, #-12]
80021878:	e1a01002 	mov	r1, r2
8002187c:	e1a00003 	mov	r0, r3
80021880:	eb00218a 	bl	80029eb0 <__aeabi_uidivmod>
80021884:	e1a03001 	mov	r3, r1
80021888:	e1a01003 	mov	r1, r3
8002188c:	e51b3008 	ldr	r3, [fp, #-8]
80021890:	e2832001 	add	r2, r3, #1
80021894:	e50b2008 	str	r2, [fp, #-8]
80021898:	e59f2098 	ldr	r2, [pc, #152]	; 80021938 <printint+0x128>
8002189c:	e7d22001 	ldrb	r2, [r2, r1]
800218a0:	e24b1004 	sub	r1, fp, #4
800218a4:	e0813003 	add	r3, r1, r3
800218a8:	e5432018 	strb	r2, [r3, #-24]	; 0xffffffe8
800218ac:	e51b3024 	ldr	r3, [fp, #-36]	; 0xffffffdc
800218b0:	e1a01003 	mov	r1, r3
800218b4:	e51b000c 	ldr	r0, [fp, #-12]
800218b8:	eb00213f 	bl	80029dbc <__udivsi3>
800218bc:	e1a03000 	mov	r3, r0
800218c0:	e50b300c 	str	r3, [fp, #-12]
800218c4:	e51b300c 	ldr	r3, [fp, #-12]
800218c8:	e3530000 	cmp	r3, #0
800218cc:	1affffe7 	bne	80021870 <printint+0x60>
800218d0:	e51b3028 	ldr	r3, [fp, #-40]	; 0xffffffd8
800218d4:	e3530000 	cmp	r3, #0
800218d8:	0a00000d 	beq	80021914 <printint+0x104>
800218dc:	e51b3008 	ldr	r3, [fp, #-8]
800218e0:	e2832001 	add	r2, r3, #1
800218e4:	e50b2008 	str	r2, [fp, #-8]
800218e8:	e24b2004 	sub	r2, fp, #4
800218ec:	e0823003 	add	r3, r2, r3
800218f0:	e3a0202d 	mov	r2, #45	; 0x2d
800218f4:	e5432018 	strb	r2, [r3, #-24]	; 0xffffffe8
800218f8:	ea000005 	b	80021914 <printint+0x104>
800218fc:	e24b201c 	sub	r2, fp, #28
80021900:	e51b3008 	ldr	r3, [fp, #-8]
80021904:	e0823003 	add	r3, r2, r3
80021908:	e5d33000 	ldrb	r3, [r3]
8002190c:	e1a00003 	mov	r0, r3
80021910:	eb0000a2 	bl	80021ba0 <consputc>
80021914:	e51b3008 	ldr	r3, [fp, #-8]
80021918:	e2433001 	sub	r3, r3, #1
8002191c:	e50b3008 	str	r3, [fp, #-8]
80021920:	e51b3008 	ldr	r3, [fp, #-8]
80021924:	e3530000 	cmp	r3, #0
80021928:	aafffff3 	bge	800218fc <printint+0xec>
8002192c:	e1a00000 	nop			; (mov r0, r0)
80021930:	e24bd004 	sub	sp, fp, #4
80021934:	e8bd8800 	pop	{fp, pc}
80021938:	8002b000 	.word	0x8002b000

8002193c <cprintf>:
8002193c:	e92d000f 	push	{r0, r1, r2, r3}
80021940:	e92d4800 	push	{fp, lr}
80021944:	e28db004 	add	fp, sp, #4
80021948:	e24dd018 	sub	sp, sp, #24
8002194c:	e59f31e0 	ldr	r3, [pc, #480]	; 80021b34 <cprintf+0x1f8>
80021950:	e5933034 	ldr	r3, [r3, #52]	; 0x34
80021954:	e50b3014 	str	r3, [fp, #-20]	; 0xffffffec
80021958:	e51b3014 	ldr	r3, [fp, #-20]	; 0xffffffec
8002195c:	e3530000 	cmp	r3, #0
80021960:	0a000001 	beq	8002196c <cprintf+0x30>
80021964:	e59f01c8 	ldr	r0, [pc, #456]	; 80021b34 <cprintf+0x1f8>
80021968:	eb001122 	bl	80025df8 <acquire>
8002196c:	e59b3004 	ldr	r3, [fp, #4]
80021970:	e3530000 	cmp	r3, #0
80021974:	1a000001 	bne	80021980 <cprintf+0x44>
80021978:	e59f01b8 	ldr	r0, [pc, #440]	; 80021b38 <cprintf+0x1fc>
8002197c:	eb00006f 	bl	80021b40 <panic>
80021980:	e28b3008 	add	r3, fp, #8
80021984:	e50b300c 	str	r3, [fp, #-12]
80021988:	e3a03000 	mov	r3, #0
8002198c:	e50b3008 	str	r3, [fp, #-8]
80021990:	ea000053 	b	80021ae4 <cprintf+0x1a8>
80021994:	e51b3018 	ldr	r3, [fp, #-24]	; 0xffffffe8
80021998:	e3530025 	cmp	r3, #37	; 0x25
8002199c:	0a000002 	beq	800219ac <cprintf+0x70>
800219a0:	e51b0018 	ldr	r0, [fp, #-24]	; 0xffffffe8
800219a4:	eb00007d 	bl	80021ba0 <consputc>
800219a8:	ea00004a 	b	80021ad8 <cprintf+0x19c>
800219ac:	e59b2004 	ldr	r2, [fp, #4]
800219b0:	e51b3008 	ldr	r3, [fp, #-8]
800219b4:	e2833001 	add	r3, r3, #1
800219b8:	e50b3008 	str	r3, [fp, #-8]
800219bc:	e51b3008 	ldr	r3, [fp, #-8]
800219c0:	e0823003 	add	r3, r2, r3
800219c4:	e5d33000 	ldrb	r3, [r3]
800219c8:	e50b3018 	str	r3, [fp, #-24]	; 0xffffffe8
800219cc:	e51b3018 	ldr	r3, [fp, #-24]	; 0xffffffe8
800219d0:	e3530000 	cmp	r3, #0
800219d4:	0a00004b 	beq	80021b08 <cprintf+0x1cc>
800219d8:	e51b3018 	ldr	r3, [fp, #-24]	; 0xffffffe8
800219dc:	e3530070 	cmp	r3, #112	; 0x70
800219e0:	0a000014 	beq	80021a38 <cprintf+0xfc>
800219e4:	e3530070 	cmp	r3, #112	; 0x70
800219e8:	ca000004 	bgt	80021a00 <cprintf+0xc4>
800219ec:	e3530025 	cmp	r3, #37	; 0x25
800219f0:	0a000030 	beq	80021ab8 <cprintf+0x17c>
800219f4:	e3530064 	cmp	r3, #100	; 0x64
800219f8:	0a000005 	beq	80021a14 <cprintf+0xd8>
800219fc:	ea000030 	b	80021ac4 <cprintf+0x188>
80021a00:	e3530073 	cmp	r3, #115	; 0x73
80021a04:	0a000014 	beq	80021a5c <cprintf+0x120>
80021a08:	e3530078 	cmp	r3, #120	; 0x78
80021a0c:	0a000009 	beq	80021a38 <cprintf+0xfc>
80021a10:	ea00002b 	b	80021ac4 <cprintf+0x188>
80021a14:	e51b300c 	ldr	r3, [fp, #-12]
80021a18:	e2832004 	add	r2, r3, #4
80021a1c:	e50b200c 	str	r2, [fp, #-12]
80021a20:	e5933000 	ldr	r3, [r3]
80021a24:	e3a02001 	mov	r2, #1
80021a28:	e3a0100a 	mov	r1, #10
80021a2c:	e1a00003 	mov	r0, r3
80021a30:	ebffff76 	bl	80021810 <printint>
80021a34:	ea000027 	b	80021ad8 <cprintf+0x19c>
80021a38:	e51b300c 	ldr	r3, [fp, #-12]
80021a3c:	e2832004 	add	r2, r3, #4
80021a40:	e50b200c 	str	r2, [fp, #-12]
80021a44:	e5933000 	ldr	r3, [r3]
80021a48:	e3a02000 	mov	r2, #0
80021a4c:	e3a01010 	mov	r1, #16
80021a50:	e1a00003 	mov	r0, r3
80021a54:	ebffff6d 	bl	80021810 <printint>
80021a58:	ea00001e 	b	80021ad8 <cprintf+0x19c>
80021a5c:	e51b300c 	ldr	r3, [fp, #-12]
80021a60:	e2832004 	add	r2, r3, #4
80021a64:	e50b200c 	str	r2, [fp, #-12]
80021a68:	e5933000 	ldr	r3, [r3]
80021a6c:	e50b3010 	str	r3, [fp, #-16]
80021a70:	e51b3010 	ldr	r3, [fp, #-16]
80021a74:	e3530000 	cmp	r3, #0
80021a78:	1a000009 	bne	80021aa4 <cprintf+0x168>
80021a7c:	e59f30b8 	ldr	r3, [pc, #184]	; 80021b3c <cprintf+0x200>
80021a80:	e50b3010 	str	r3, [fp, #-16]
80021a84:	ea000006 	b	80021aa4 <cprintf+0x168>
80021a88:	e51b3010 	ldr	r3, [fp, #-16]
80021a8c:	e5d33000 	ldrb	r3, [r3]
80021a90:	e1a00003 	mov	r0, r3
80021a94:	eb000041 	bl	80021ba0 <consputc>
80021a98:	e51b3010 	ldr	r3, [fp, #-16]
80021a9c:	e2833001 	add	r3, r3, #1
80021aa0:	e50b3010 	str	r3, [fp, #-16]
80021aa4:	e51b3010 	ldr	r3, [fp, #-16]
80021aa8:	e5d33000 	ldrb	r3, [r3]
80021aac:	e3530000 	cmp	r3, #0
80021ab0:	1afffff4 	bne	80021a88 <cprintf+0x14c>
80021ab4:	ea000007 	b	80021ad8 <cprintf+0x19c>
80021ab8:	e3a00025 	mov	r0, #37	; 0x25
80021abc:	eb000037 	bl	80021ba0 <consputc>
80021ac0:	ea000004 	b	80021ad8 <cprintf+0x19c>
80021ac4:	e3a00025 	mov	r0, #37	; 0x25
80021ac8:	eb000034 	bl	80021ba0 <consputc>
80021acc:	e51b0018 	ldr	r0, [fp, #-24]	; 0xffffffe8
80021ad0:	eb000032 	bl	80021ba0 <consputc>
80021ad4:	e1a00000 	nop			; (mov r0, r0)
80021ad8:	e51b3008 	ldr	r3, [fp, #-8]
80021adc:	e2833001 	add	r3, r3, #1
80021ae0:	e50b3008 	str	r3, [fp, #-8]
80021ae4:	e59b2004 	ldr	r2, [fp, #4]
80021ae8:	e51b3008 	ldr	r3, [fp, #-8]
80021aec:	e0823003 	add	r3, r2, r3
80021af0:	e5d33000 	ldrb	r3, [r3]
80021af4:	e50b3018 	str	r3, [fp, #-24]	; 0xffffffe8
80021af8:	e51b3018 	ldr	r3, [fp, #-24]	; 0xffffffe8
80021afc:	e3530000 	cmp	r3, #0
80021b00:	1affffa3 	bne	80021994 <cprintf+0x58>
80021b04:	ea000000 	b	80021b0c <cprintf+0x1d0>
80021b08:	e1a00000 	nop			; (mov r0, r0)
80021b0c:	e51b3014 	ldr	r3, [fp, #-20]	; 0xffffffec
80021b10:	e3530000 	cmp	r3, #0
80021b14:	0a000001 	beq	80021b20 <cprintf+0x1e4>
80021b18:	e59f0014 	ldr	r0, [pc, #20]	; 80021b34 <cprintf+0x1f8>
80021b1c:	eb0010c0 	bl	80025e24 <release>
80021b20:	e1a00000 	nop			; (mov r0, r0)
80021b24:	e24bd004 	sub	sp, fp, #4
80021b28:	e8bd4800 	pop	{fp, lr}
80021b2c:	e28dd010 	add	sp, sp, #16
80021b30:	e12fff1e 	bx	lr
80021b34:	800ac88c 	.word	0x800ac88c
80021b38:	8002a14c 	.word	0x8002a14c
80021b3c:	8002a158 	.word	0x8002a158

80021b40 <panic>:
80021b40:	e92d4800 	push	{fp, lr}
80021b44:	e28db004 	add	fp, sp, #4
80021b48:	e24dd008 	sub	sp, sp, #8
80021b4c:	e50b0008 	str	r0, [fp, #-8]
80021b50:	ebfffa78 	bl	80020538 <cli>
80021b54:	e59f3034 	ldr	r3, [pc, #52]	; 80021b90 <panic+0x50>
80021b58:	e3a02000 	mov	r2, #0
80021b5c:	e5832034 	str	r2, [r3, #52]	; 0x34
80021b60:	e59f302c 	ldr	r3, [pc, #44]	; 80021b94 <panic+0x54>
80021b64:	e5933000 	ldr	r3, [r3]
80021b68:	e5d33000 	ldrb	r3, [r3]
80021b6c:	e1a01003 	mov	r1, r3
80021b70:	e59f0020 	ldr	r0, [pc, #32]	; 80021b98 <panic+0x58>
80021b74:	ebffff70 	bl	8002193c <cprintf>
80021b78:	e51b0008 	ldr	r0, [fp, #-8]
80021b7c:	ebfffb1f 	bl	80020800 <show_callstk>
80021b80:	e59f3014 	ldr	r3, [pc, #20]	; 80021b9c <panic+0x5c>
80021b84:	e3a02001 	mov	r2, #1
80021b88:	e5832000 	str	r2, [r3]
80021b8c:	eafffffe 	b	80021b8c <panic+0x4c>
80021b90:	800ac88c 	.word	0x800ac88c
80021b94:	800ae52c 	.word	0x800ae52c
80021b98:	8002a160 	.word	0x8002a160
80021b9c:	800ac888 	.word	0x800ac888

80021ba0 <consputc>:
80021ba0:	e92d4800 	push	{fp, lr}
80021ba4:	e28db004 	add	fp, sp, #4
80021ba8:	e24dd008 	sub	sp, sp, #8
80021bac:	e50b0008 	str	r0, [fp, #-8]
80021bb0:	e59f304c 	ldr	r3, [pc, #76]	; 80021c04 <consputc+0x64>
80021bb4:	e5933000 	ldr	r3, [r3]
80021bb8:	e3530000 	cmp	r3, #0
80021bbc:	0a000001 	beq	80021bc8 <consputc+0x28>
80021bc0:	ebfffa5c 	bl	80020538 <cli>
80021bc4:	eafffffe 	b	80021bc4 <consputc+0x24>
80021bc8:	e51b3008 	ldr	r3, [fp, #-8]
80021bcc:	e3530c01 	cmp	r3, #256	; 0x100
80021bd0:	1a000006 	bne	80021bf0 <consputc+0x50>
80021bd4:	e3a00008 	mov	r0, #8
80021bd8:	eb001e3b 	bl	800294cc <uartputc>
80021bdc:	e3a00020 	mov	r0, #32
80021be0:	eb001e39 	bl	800294cc <uartputc>
80021be4:	e3a00008 	mov	r0, #8
80021be8:	eb001e37 	bl	800294cc <uartputc>
80021bec:	ea000001 	b	80021bf8 <consputc+0x58>
80021bf0:	e51b0008 	ldr	r0, [fp, #-8]
80021bf4:	eb001e34 	bl	800294cc <uartputc>
80021bf8:	e1a00000 	nop			; (mov r0, r0)
80021bfc:	e24bd004 	sub	sp, fp, #4
80021c00:	e8bd8800 	pop	{fp, pc}
80021c04:	800ac888 	.word	0x800ac888

80021c08 <consoleintr>:
80021c08:	e92d4800 	push	{fp, lr}
80021c0c:	e28db004 	add	fp, sp, #4
80021c10:	e24dd010 	sub	sp, sp, #16
80021c14:	e50b0010 	str	r0, [fp, #-16]
80021c18:	e59f01d4 	ldr	r0, [pc, #468]	; 80021df4 <consoleintr+0x1ec>
80021c1c:	eb001075 	bl	80025df8 <acquire>
80021c20:	ea000068 	b	80021dc8 <consoleintr+0x1c0>
80021c24:	e51b3008 	ldr	r3, [fp, #-8]
80021c28:	e3530010 	cmp	r3, #16
80021c2c:	0a000009 	beq	80021c58 <consoleintr+0x50>
80021c30:	e3530010 	cmp	r3, #16
80021c34:	ca000002 	bgt	80021c44 <consoleintr+0x3c>
80021c38:	e3530008 	cmp	r3, #8
80021c3c:	0a00001f 	beq	80021cc0 <consoleintr+0xb8>
80021c40:	ea00002c 	b	80021cf8 <consoleintr+0xf0>
80021c44:	e3530015 	cmp	r3, #21
80021c48:	0a00000b 	beq	80021c7c <consoleintr+0x74>
80021c4c:	e353007f 	cmp	r3, #127	; 0x7f
80021c50:	0a00001a 	beq	80021cc0 <consoleintr+0xb8>
80021c54:	ea000027 	b	80021cf8 <consoleintr+0xf0>
80021c58:	eb000fa9 	bl	80025b04 <procdump>
80021c5c:	ea000059 	b	80021dc8 <consoleintr+0x1c0>
80021c60:	e59f318c 	ldr	r3, [pc, #396]	; 80021df4 <consoleintr+0x1ec>
80021c64:	e593323c 	ldr	r3, [r3, #572]	; 0x23c
80021c68:	e2433001 	sub	r3, r3, #1
80021c6c:	e59f2180 	ldr	r2, [pc, #384]	; 80021df4 <consoleintr+0x1ec>
80021c70:	e582323c 	str	r3, [r2, #572]	; 0x23c
80021c74:	e3a00c01 	mov	r0, #256	; 0x100
80021c78:	ebffffc8 	bl	80021ba0 <consputc>
80021c7c:	e59f3170 	ldr	r3, [pc, #368]	; 80021df4 <consoleintr+0x1ec>
80021c80:	e593223c 	ldr	r2, [r3, #572]	; 0x23c
80021c84:	e59f3168 	ldr	r3, [pc, #360]	; 80021df4 <consoleintr+0x1ec>
80021c88:	e5933238 	ldr	r3, [r3, #568]	; 0x238
80021c8c:	e1520003 	cmp	r2, r3
80021c90:	0a00004c 	beq	80021dc8 <consoleintr+0x1c0>
80021c94:	e59f3158 	ldr	r3, [pc, #344]	; 80021df4 <consoleintr+0x1ec>
80021c98:	e593323c 	ldr	r3, [r3, #572]	; 0x23c
80021c9c:	e2433001 	sub	r3, r3, #1
80021ca0:	e1a03b83 	lsl	r3, r3, #23
80021ca4:	e1a03ba3 	lsr	r3, r3, #23
80021ca8:	e59f2144 	ldr	r2, [pc, #324]	; 80021df4 <consoleintr+0x1ec>
80021cac:	e0823003 	add	r3, r2, r3
80021cb0:	e5d33034 	ldrb	r3, [r3, #52]	; 0x34
80021cb4:	e353000a 	cmp	r3, #10
80021cb8:	1affffe8 	bne	80021c60 <consoleintr+0x58>
80021cbc:	ea000041 	b	80021dc8 <consoleintr+0x1c0>
80021cc0:	e59f312c 	ldr	r3, [pc, #300]	; 80021df4 <consoleintr+0x1ec>
80021cc4:	e593223c 	ldr	r2, [r3, #572]	; 0x23c
80021cc8:	e59f3124 	ldr	r3, [pc, #292]	; 80021df4 <consoleintr+0x1ec>
80021ccc:	e5933238 	ldr	r3, [r3, #568]	; 0x238
80021cd0:	e1520003 	cmp	r2, r3
80021cd4:	0a00003b 	beq	80021dc8 <consoleintr+0x1c0>
80021cd8:	e59f3114 	ldr	r3, [pc, #276]	; 80021df4 <consoleintr+0x1ec>
80021cdc:	e593323c 	ldr	r3, [r3, #572]	; 0x23c
80021ce0:	e2433001 	sub	r3, r3, #1
80021ce4:	e59f2108 	ldr	r2, [pc, #264]	; 80021df4 <consoleintr+0x1ec>
80021ce8:	e582323c 	str	r3, [r2, #572]	; 0x23c
80021cec:	e3a00c01 	mov	r0, #256	; 0x100
80021cf0:	ebffffaa 	bl	80021ba0 <consputc>
80021cf4:	ea000033 	b	80021dc8 <consoleintr+0x1c0>
80021cf8:	e51b3008 	ldr	r3, [fp, #-8]
80021cfc:	e3530000 	cmp	r3, #0
80021d00:	0a00002f 	beq	80021dc4 <consoleintr+0x1bc>
80021d04:	e59f30e8 	ldr	r3, [pc, #232]	; 80021df4 <consoleintr+0x1ec>
80021d08:	e593223c 	ldr	r2, [r3, #572]	; 0x23c
80021d0c:	e59f30e0 	ldr	r3, [pc, #224]	; 80021df4 <consoleintr+0x1ec>
80021d10:	e5933234 	ldr	r3, [r3, #564]	; 0x234
80021d14:	e0423003 	sub	r3, r2, r3
80021d18:	e3530c02 	cmp	r3, #512	; 0x200
80021d1c:	2a000028 	bcs	80021dc4 <consoleintr+0x1bc>
80021d20:	e51b3008 	ldr	r3, [fp, #-8]
80021d24:	e353000d 	cmp	r3, #13
80021d28:	0a000001 	beq	80021d34 <consoleintr+0x12c>
80021d2c:	e51b3008 	ldr	r3, [fp, #-8]
80021d30:	ea000000 	b	80021d38 <consoleintr+0x130>
80021d34:	e3a0300a 	mov	r3, #10
80021d38:	e50b3008 	str	r3, [fp, #-8]
80021d3c:	e59f30b0 	ldr	r3, [pc, #176]	; 80021df4 <consoleintr+0x1ec>
80021d40:	e593323c 	ldr	r3, [r3, #572]	; 0x23c
80021d44:	e2832001 	add	r2, r3, #1
80021d48:	e59f10a4 	ldr	r1, [pc, #164]	; 80021df4 <consoleintr+0x1ec>
80021d4c:	e581223c 	str	r2, [r1, #572]	; 0x23c
80021d50:	e1a03b83 	lsl	r3, r3, #23
80021d54:	e1a03ba3 	lsr	r3, r3, #23
80021d58:	e51b2008 	ldr	r2, [fp, #-8]
80021d5c:	e6ef1072 	uxtb	r1, r2
80021d60:	e59f208c 	ldr	r2, [pc, #140]	; 80021df4 <consoleintr+0x1ec>
80021d64:	e0823003 	add	r3, r2, r3
80021d68:	e1a02001 	mov	r2, r1
80021d6c:	e5c32034 	strb	r2, [r3, #52]	; 0x34
80021d70:	e51b0008 	ldr	r0, [fp, #-8]
80021d74:	ebffff89 	bl	80021ba0 <consputc>
80021d78:	e51b3008 	ldr	r3, [fp, #-8]
80021d7c:	e353000a 	cmp	r3, #10
80021d80:	0a000009 	beq	80021dac <consoleintr+0x1a4>
80021d84:	e51b3008 	ldr	r3, [fp, #-8]
80021d88:	e3530004 	cmp	r3, #4
80021d8c:	0a000006 	beq	80021dac <consoleintr+0x1a4>
80021d90:	e59f305c 	ldr	r3, [pc, #92]	; 80021df4 <consoleintr+0x1ec>
80021d94:	e593223c 	ldr	r2, [r3, #572]	; 0x23c
80021d98:	e59f3054 	ldr	r3, [pc, #84]	; 80021df4 <consoleintr+0x1ec>
80021d9c:	e5933234 	ldr	r3, [r3, #564]	; 0x234
80021da0:	e2833c02 	add	r3, r3, #512	; 0x200
80021da4:	e1520003 	cmp	r2, r3
80021da8:	1a000005 	bne	80021dc4 <consoleintr+0x1bc>
80021dac:	e59f3040 	ldr	r3, [pc, #64]	; 80021df4 <consoleintr+0x1ec>
80021db0:	e593323c 	ldr	r3, [r3, #572]	; 0x23c
80021db4:	e59f2038 	ldr	r2, [pc, #56]	; 80021df4 <consoleintr+0x1ec>
80021db8:	e5823238 	str	r3, [r2, #568]	; 0x238
80021dbc:	e59f0034 	ldr	r0, [pc, #52]	; 80021df8 <consoleintr+0x1f0>
80021dc0:	eb000f11 	bl	80025a0c <wakeup>
80021dc4:	e1a00000 	nop			; (mov r0, r0)
80021dc8:	e51b3010 	ldr	r3, [fp, #-16]
80021dcc:	e12fff33 	blx	r3
80021dd0:	e50b0008 	str	r0, [fp, #-8]
80021dd4:	e51b3008 	ldr	r3, [fp, #-8]
80021dd8:	e3530000 	cmp	r3, #0
80021ddc:	aaffff90 	bge	80021c24 <consoleintr+0x1c>
80021de0:	e59f000c 	ldr	r0, [pc, #12]	; 80021df4 <consoleintr+0x1ec>
80021de4:	eb00100e 	bl	80025e24 <release>
80021de8:	e1a00000 	nop			; (mov r0, r0)
80021dec:	e24bd004 	sub	sp, fp, #4
80021df0:	e8bd8800 	pop	{fp, pc}
80021df4:	800ac8c4 	.word	0x800ac8c4
80021df8:	800acaf8 	.word	0x800acaf8

80021dfc <consoleread>:
80021dfc:	e92d4800 	push	{fp, lr}
80021e00:	e28db004 	add	fp, sp, #4
80021e04:	e24dd018 	sub	sp, sp, #24
80021e08:	e50b0010 	str	r0, [fp, #-16]
80021e0c:	e50b1014 	str	r1, [fp, #-20]	; 0xffffffec
80021e10:	e50b2018 	str	r2, [fp, #-24]	; 0xffffffe8
80021e14:	e51b0010 	ldr	r0, [fp, #-16]
80021e18:	eb00053a 	bl	80023308 <iunlock>
80021e1c:	e51b3018 	ldr	r3, [fp, #-24]	; 0xffffffe8
80021e20:	e50b3008 	str	r3, [fp, #-8]
80021e24:	e59f0128 	ldr	r0, [pc, #296]	; 80021f54 <consoleread+0x158>
80021e28:	eb000ff2 	bl	80025df8 <acquire>
80021e2c:	ea000037 	b	80021f10 <consoleread+0x114>
80021e30:	e59f3120 	ldr	r3, [pc, #288]	; 80021f58 <consoleread+0x15c>
80021e34:	e5933000 	ldr	r3, [r3]
80021e38:	e5933024 	ldr	r3, [r3, #36]	; 0x24
80021e3c:	e3530000 	cmp	r3, #0
80021e40:	0a000005 	beq	80021e5c <consoleread+0x60>
80021e44:	e59f0108 	ldr	r0, [pc, #264]	; 80021f54 <consoleread+0x158>
80021e48:	eb000ff5 	bl	80025e24 <release>
80021e4c:	e51b0010 	ldr	r0, [fp, #-16]
80021e50:	eb0004c8 	bl	80023178 <ilock>
80021e54:	e3e03000 	mvn	r3, #0
80021e58:	ea00003a 	b	80021f48 <consoleread+0x14c>
80021e5c:	e59f10f0 	ldr	r1, [pc, #240]	; 80021f54 <consoleread+0x158>
80021e60:	e59f00f4 	ldr	r0, [pc, #244]	; 80021f5c <consoleread+0x160>
80021e64:	eb000e94 	bl	800258bc <sleep>
80021e68:	e59f30e4 	ldr	r3, [pc, #228]	; 80021f54 <consoleread+0x158>
80021e6c:	e5932234 	ldr	r2, [r3, #564]	; 0x234
80021e70:	e59f30dc 	ldr	r3, [pc, #220]	; 80021f54 <consoleread+0x158>
80021e74:	e5933238 	ldr	r3, [r3, #568]	; 0x238
80021e78:	e1520003 	cmp	r2, r3
80021e7c:	0affffeb 	beq	80021e30 <consoleread+0x34>
80021e80:	e59f30cc 	ldr	r3, [pc, #204]	; 80021f54 <consoleread+0x158>
80021e84:	e5933234 	ldr	r3, [r3, #564]	; 0x234
80021e88:	e2832001 	add	r2, r3, #1
80021e8c:	e59f10c0 	ldr	r1, [pc, #192]	; 80021f54 <consoleread+0x158>
80021e90:	e5812234 	str	r2, [r1, #564]	; 0x234
80021e94:	e1a03b83 	lsl	r3, r3, #23
80021e98:	e1a03ba3 	lsr	r3, r3, #23
80021e9c:	e59f20b0 	ldr	r2, [pc, #176]	; 80021f54 <consoleread+0x158>
80021ea0:	e0823003 	add	r3, r2, r3
80021ea4:	e5d33034 	ldrb	r3, [r3, #52]	; 0x34
80021ea8:	e50b300c 	str	r3, [fp, #-12]
80021eac:	e51b300c 	ldr	r3, [fp, #-12]
80021eb0:	e3530004 	cmp	r3, #4
80021eb4:	1a000009 	bne	80021ee0 <consoleread+0xe4>
80021eb8:	e51b3018 	ldr	r3, [fp, #-24]	; 0xffffffe8
80021ebc:	e51b2008 	ldr	r2, [fp, #-8]
80021ec0:	e1520003 	cmp	r2, r3
80021ec4:	9a000015 	bls	80021f20 <consoleread+0x124>
80021ec8:	e59f3084 	ldr	r3, [pc, #132]	; 80021f54 <consoleread+0x158>
80021ecc:	e5933234 	ldr	r3, [r3, #564]	; 0x234
80021ed0:	e2433001 	sub	r3, r3, #1
80021ed4:	e59f2078 	ldr	r2, [pc, #120]	; 80021f54 <consoleread+0x158>
80021ed8:	e5823234 	str	r3, [r2, #564]	; 0x234
80021edc:	ea00000f 	b	80021f20 <consoleread+0x124>
80021ee0:	e51b3014 	ldr	r3, [fp, #-20]	; 0xffffffec
80021ee4:	e2832001 	add	r2, r3, #1
80021ee8:	e50b2014 	str	r2, [fp, #-20]	; 0xffffffec
80021eec:	e51b200c 	ldr	r2, [fp, #-12]
80021ef0:	e6ef2072 	uxtb	r2, r2
80021ef4:	e5c32000 	strb	r2, [r3]
80021ef8:	e51b3018 	ldr	r3, [fp, #-24]	; 0xffffffe8
80021efc:	e2433001 	sub	r3, r3, #1
80021f00:	e50b3018 	str	r3, [fp, #-24]	; 0xffffffe8
80021f04:	e51b300c 	ldr	r3, [fp, #-12]
80021f08:	e353000a 	cmp	r3, #10
80021f0c:	0a000005 	beq	80021f28 <consoleread+0x12c>
80021f10:	e51b3018 	ldr	r3, [fp, #-24]	; 0xffffffe8
80021f14:	e3530000 	cmp	r3, #0
80021f18:	caffffd2 	bgt	80021e68 <consoleread+0x6c>
80021f1c:	ea000002 	b	80021f2c <consoleread+0x130>
80021f20:	e1a00000 	nop			; (mov r0, r0)
80021f24:	ea000000 	b	80021f2c <consoleread+0x130>
80021f28:	e1a00000 	nop			; (mov r0, r0)
80021f2c:	e59f0020 	ldr	r0, [pc, #32]	; 80021f54 <consoleread+0x158>
80021f30:	eb000fbb 	bl	80025e24 <release>
80021f34:	e51b0010 	ldr	r0, [fp, #-16]
80021f38:	eb00048e 	bl	80023178 <ilock>
80021f3c:	e51b3018 	ldr	r3, [fp, #-24]	; 0xffffffe8
80021f40:	e51b2008 	ldr	r2, [fp, #-8]
80021f44:	e0423003 	sub	r3, r2, r3
80021f48:	e1a00003 	mov	r0, r3
80021f4c:	e24bd004 	sub	sp, fp, #4
80021f50:	e8bd8800 	pop	{fp, pc}
80021f54:	800ac8c4 	.word	0x800ac8c4
80021f58:	800ae61c 	.word	0x800ae61c
80021f5c:	800acaf8 	.word	0x800acaf8

80021f60 <consolewrite>:
80021f60:	e92d4800 	push	{fp, lr}
80021f64:	e28db004 	add	fp, sp, #4
80021f68:	e24dd018 	sub	sp, sp, #24
80021f6c:	e50b0010 	str	r0, [fp, #-16]
80021f70:	e50b1014 	str	r1, [fp, #-20]	; 0xffffffec
80021f74:	e50b2018 	str	r2, [fp, #-24]	; 0xffffffe8
80021f78:	e51b0010 	ldr	r0, [fp, #-16]
80021f7c:	eb0004e1 	bl	80023308 <iunlock>
80021f80:	e59f0060 	ldr	r0, [pc, #96]	; 80021fe8 <consolewrite+0x88>
80021f84:	eb000f9b 	bl	80025df8 <acquire>
80021f88:	e3a03000 	mov	r3, #0
80021f8c:	e50b3008 	str	r3, [fp, #-8]
80021f90:	ea000008 	b	80021fb8 <consolewrite+0x58>
80021f94:	e51b3008 	ldr	r3, [fp, #-8]
80021f98:	e51b2014 	ldr	r2, [fp, #-20]	; 0xffffffec
80021f9c:	e0823003 	add	r3, r2, r3
80021fa0:	e5d33000 	ldrb	r3, [r3]
80021fa4:	e1a00003 	mov	r0, r3
80021fa8:	ebfffefc 	bl	80021ba0 <consputc>
80021fac:	e51b3008 	ldr	r3, [fp, #-8]
80021fb0:	e2833001 	add	r3, r3, #1
80021fb4:	e50b3008 	str	r3, [fp, #-8]
80021fb8:	e51b2008 	ldr	r2, [fp, #-8]
80021fbc:	e51b3018 	ldr	r3, [fp, #-24]	; 0xffffffe8
80021fc0:	e1520003 	cmp	r2, r3
80021fc4:	bafffff2 	blt	80021f94 <consolewrite+0x34>
80021fc8:	e59f0018 	ldr	r0, [pc, #24]	; 80021fe8 <consolewrite+0x88>
80021fcc:	eb000f94 	bl	80025e24 <release>
80021fd0:	e51b0010 	ldr	r0, [fp, #-16]
80021fd4:	eb000467 	bl	80023178 <ilock>
80021fd8:	e51b3018 	ldr	r3, [fp, #-24]	; 0xffffffe8
80021fdc:	e1a00003 	mov	r0, r3
80021fe0:	e24bd004 	sub	sp, fp, #4
80021fe4:	e8bd8800 	pop	{fp, pc}
80021fe8:	800ac88c 	.word	0x800ac88c

80021fec <consoleinit>:
80021fec:	e92d4800 	push	{fp, lr}
80021ff0:	e28db004 	add	fp, sp, #4
80021ff4:	e59f103c 	ldr	r1, [pc, #60]	; 80022038 <consoleinit+0x4c>
80021ff8:	e59f003c 	ldr	r0, [pc, #60]	; 8002203c <consoleinit+0x50>
80021ffc:	eb000f6b 	bl	80025db0 <initlock>
80022000:	e59f1038 	ldr	r1, [pc, #56]	; 80022040 <consoleinit+0x54>
80022004:	e59f0038 	ldr	r0, [pc, #56]	; 80022044 <consoleinit+0x58>
80022008:	eb000f68 	bl	80025db0 <initlock>
8002200c:	e59f3034 	ldr	r3, [pc, #52]	; 80022048 <consoleinit+0x5c>
80022010:	e59f2034 	ldr	r2, [pc, #52]	; 8002204c <consoleinit+0x60>
80022014:	e583200c 	str	r2, [r3, #12]
80022018:	e59f3028 	ldr	r3, [pc, #40]	; 80022048 <consoleinit+0x5c>
8002201c:	e59f202c 	ldr	r2, [pc, #44]	; 80022050 <consoleinit+0x64>
80022020:	e5832008 	str	r2, [r3, #8]
80022024:	e59f3010 	ldr	r3, [pc, #16]	; 8002203c <consoleinit+0x50>
80022028:	e3a02001 	mov	r2, #1
8002202c:	e5832034 	str	r2, [r3, #52]	; 0x34
80022030:	e1a00000 	nop			; (mov r0, r0)
80022034:	e8bd8800 	pop	{fp, pc}
80022038:	8002a170 	.word	0x8002a170
8002203c:	800ac88c 	.word	0x800ac88c
80022040:	8002a178 	.word	0x8002a178
80022044:	800ac8c4 	.word	0x800ac8c4
80022048:	800ad498 	.word	0x800ad498
8002204c:	80021f60 	.word	0x80021f60
80022050:	80021dfc 	.word	0x80021dfc

80022054 <exec>:
80022054:	e92d4810 	push	{r4, fp, lr}
80022058:	e28db008 	add	fp, sp, #8
8002205c:	e24ddf49 	sub	sp, sp, #292	; 0x124
80022060:	e50b0120 	str	r0, [fp, #-288]	; 0xfffffee0
80022064:	e50b1124 	str	r1, [fp, #-292]	; 0xfffffedc
80022068:	e51b0120 	ldr	r0, [fp, #-288]	; 0xfffffee0
8002206c:	eb000814 	bl	800240c4 <namei>
80022070:	e50b0010 	str	r0, [fp, #-16]
80022074:	e51b3010 	ldr	r3, [fp, #-16]
80022078:	e3530000 	cmp	r3, #0
8002207c:	1a000001 	bne	80022088 <exec+0x34>
80022080:	e3e03000 	mvn	r3, #0
80022084:	ea000120 	b	8002250c <exec+0x4b8>
80022088:	e51b0010 	ldr	r0, [fp, #-16]
8002208c:	eb000439 	bl	80023178 <ilock>
80022090:	e24b1068 	sub	r1, fp, #104	; 0x68
80022094:	e3a03034 	mov	r3, #52	; 0x34
80022098:	e3a02000 	mov	r2, #0
8002209c:	e51b0010 	ldr	r0, [fp, #-16]
800220a0:	eb0005e0 	bl	80023828 <readi>
800220a4:	e1a03000 	mov	r3, r0
800220a8:	e3530033 	cmp	r3, #51	; 0x33
800220ac:	9a0000f6 	bls	8002248c <exec+0x438>
800220b0:	e51b3068 	ldr	r3, [fp, #-104]	; 0xffffff98
800220b4:	e59f245c 	ldr	r2, [pc, #1116]	; 80022518 <exec+0x4c4>
800220b8:	e1530002 	cmp	r3, r2
800220bc:	1a0000f4 	bne	80022494 <exec+0x440>
800220c0:	e3a03000 	mov	r3, #0
800220c4:	e50b3014 	str	r3, [fp, #-20]	; 0xffffffec
800220c8:	eb001906 	bl	800284e8 <kpt_alloc>
800220cc:	e50b0014 	str	r0, [fp, #-20]	; 0xffffffec
800220d0:	e51b3014 	ldr	r3, [fp, #-20]	; 0xffffffec
800220d4:	e3530000 	cmp	r3, #0
800220d8:	0a0000ef 	beq	8002249c <exec+0x448>
800220dc:	e3a03000 	mov	r3, #0
800220e0:	e50b302c 	str	r3, [fp, #-44]	; 0xffffffd4
800220e4:	e3a03000 	mov	r3, #0
800220e8:	e50b3020 	str	r3, [fp, #-32]	; 0xffffffe0
800220ec:	e51b304c 	ldr	r3, [fp, #-76]	; 0xffffffb4
800220f0:	e50b3024 	str	r3, [fp, #-36]	; 0xffffffdc
800220f4:	ea00002e 	b	800221b4 <exec+0x160>
800220f8:	e51b2024 	ldr	r2, [fp, #-36]	; 0xffffffdc
800220fc:	e24b1088 	sub	r1, fp, #136	; 0x88
80022100:	e3a03020 	mov	r3, #32
80022104:	e51b0010 	ldr	r0, [fp, #-16]
80022108:	eb0005c6 	bl	80023828 <readi>
8002210c:	e1a03000 	mov	r3, r0
80022110:	e3530020 	cmp	r3, #32
80022114:	1a0000e2 	bne	800224a4 <exec+0x450>
80022118:	e51b3088 	ldr	r3, [fp, #-136]	; 0xffffff78
8002211c:	e3530001 	cmp	r3, #1
80022120:	1a00001c 	bne	80022198 <exec+0x144>
80022124:	e51b2074 	ldr	r2, [fp, #-116]	; 0xffffff8c
80022128:	e51b3078 	ldr	r3, [fp, #-120]	; 0xffffff88
8002212c:	e1520003 	cmp	r2, r3
80022130:	3a0000dd 	bcc	800224ac <exec+0x458>
80022134:	e51b2080 	ldr	r2, [fp, #-128]	; 0xffffff80
80022138:	e51b3074 	ldr	r3, [fp, #-116]	; 0xffffff8c
8002213c:	e0823003 	add	r3, r2, r3
80022140:	e1a02003 	mov	r2, r3
80022144:	e51b102c 	ldr	r1, [fp, #-44]	; 0xffffffd4
80022148:	e51b0014 	ldr	r0, [fp, #-20]	; 0xffffffec
8002214c:	eb001a12 	bl	8002899c <allocuvm>
80022150:	e1a03000 	mov	r3, r0
80022154:	e50b302c 	str	r3, [fp, #-44]	; 0xffffffd4
80022158:	e51b302c 	ldr	r3, [fp, #-44]	; 0xffffffd4
8002215c:	e3530000 	cmp	r3, #0
80022160:	0a0000d3 	beq	800224b4 <exec+0x460>
80022164:	e51b3080 	ldr	r3, [fp, #-128]	; 0xffffff80
80022168:	e1a01003 	mov	r1, r3
8002216c:	e51b2084 	ldr	r2, [fp, #-132]	; 0xffffff7c
80022170:	e51b3078 	ldr	r3, [fp, #-120]	; 0xffffff88
80022174:	e58d3000 	str	r3, [sp]
80022178:	e1a03002 	mov	r3, r2
8002217c:	e51b2010 	ldr	r2, [fp, #-16]
80022180:	e51b0014 	ldr	r0, [fp, #-20]	; 0xffffffec
80022184:	eb0019b8 	bl	8002886c <loaduvm>
80022188:	e1a03000 	mov	r3, r0
8002218c:	e3530000 	cmp	r3, #0
80022190:	ba0000c9 	blt	800224bc <exec+0x468>
80022194:	ea000000 	b	8002219c <exec+0x148>
80022198:	e1a00000 	nop			; (mov r0, r0)
8002219c:	e51b3020 	ldr	r3, [fp, #-32]	; 0xffffffe0
800221a0:	e2833001 	add	r3, r3, #1
800221a4:	e50b3020 	str	r3, [fp, #-32]	; 0xffffffe0
800221a8:	e51b3024 	ldr	r3, [fp, #-36]	; 0xffffffdc
800221ac:	e2833020 	add	r3, r3, #32
800221b0:	e50b3024 	str	r3, [fp, #-36]	; 0xffffffdc
800221b4:	e15b33bc 	ldrh	r3, [fp, #-60]	; 0xffffffc4
800221b8:	e1a02003 	mov	r2, r3
800221bc:	e51b3020 	ldr	r3, [fp, #-32]	; 0xffffffe0
800221c0:	e1530002 	cmp	r3, r2
800221c4:	baffffcb 	blt	800220f8 <exec+0xa4>
800221c8:	e51b0010 	ldr	r0, [fp, #-16]
800221cc:	eb0004aa 	bl	8002347c <iunlockput>
800221d0:	e3a03000 	mov	r3, #0
800221d4:	e50b3010 	str	r3, [fp, #-16]
800221d8:	e51b302c 	ldr	r3, [fp, #-44]	; 0xffffffd4
800221dc:	e2833eff 	add	r3, r3, #4080	; 0xff0
800221e0:	e283300f 	add	r3, r3, #15
800221e4:	e3c33eff 	bic	r3, r3, #4080	; 0xff0
800221e8:	e3c3300f 	bic	r3, r3, #15
800221ec:	e50b302c 	str	r3, [fp, #-44]	; 0xffffffd4
800221f0:	e51b302c 	ldr	r3, [fp, #-44]	; 0xffffffd4
800221f4:	e2833a02 	add	r3, r3, #8192	; 0x2000
800221f8:	e1a02003 	mov	r2, r3
800221fc:	e51b102c 	ldr	r1, [fp, #-44]	; 0xffffffd4
80022200:	e51b0014 	ldr	r0, [fp, #-20]	; 0xffffffec
80022204:	eb0019e4 	bl	8002899c <allocuvm>
80022208:	e1a03000 	mov	r3, r0
8002220c:	e50b302c 	str	r3, [fp, #-44]	; 0xffffffd4
80022210:	e51b302c 	ldr	r3, [fp, #-44]	; 0xffffffd4
80022214:	e3530000 	cmp	r3, #0
80022218:	0a0000a9 	beq	800224c4 <exec+0x470>
8002221c:	e51b302c 	ldr	r3, [fp, #-44]	; 0xffffffd4
80022220:	e2433a02 	sub	r3, r3, #8192	; 0x2000
80022224:	e1a01003 	mov	r1, r3
80022228:	e51b0014 	ldr	r0, [fp, #-20]	; 0xffffffec
8002222c:	eb001a90 	bl	80028c74 <clearpteu>
80022230:	e51b302c 	ldr	r3, [fp, #-44]	; 0xffffffd4
80022234:	e50b3030 	str	r3, [fp, #-48]	; 0xffffffd0
80022238:	e3a03000 	mov	r3, #0
8002223c:	e50b3028 	str	r3, [fp, #-40]	; 0xffffffd8
80022240:	ea00002e 	b	80022300 <exec+0x2ac>
80022244:	e51b3028 	ldr	r3, [fp, #-40]	; 0xffffffd8
80022248:	e353001f 	cmp	r3, #31
8002224c:	8a00009e 	bhi	800224cc <exec+0x478>
80022250:	e51b3028 	ldr	r3, [fp, #-40]	; 0xffffffd8
80022254:	e1a03103 	lsl	r3, r3, #2
80022258:	e51b2124 	ldr	r2, [fp, #-292]	; 0xfffffedc
8002225c:	e0823003 	add	r3, r2, r3
80022260:	e5933000 	ldr	r3, [r3]
80022264:	e1a00003 	mov	r0, r3
80022268:	ebfff89d 	bl	800204e4 <strlen>
8002226c:	e1a03000 	mov	r3, r0
80022270:	e1a02003 	mov	r2, r3
80022274:	e51b3030 	ldr	r3, [fp, #-48]	; 0xffffffd0
80022278:	e0433002 	sub	r3, r3, r2
8002227c:	e2433001 	sub	r3, r3, #1
80022280:	e3c33003 	bic	r3, r3, #3
80022284:	e50b3030 	str	r3, [fp, #-48]	; 0xffffffd0
80022288:	e51b3028 	ldr	r3, [fp, #-40]	; 0xffffffd8
8002228c:	e1a03103 	lsl	r3, r3, #2
80022290:	e51b2124 	ldr	r2, [fp, #-292]	; 0xfffffedc
80022294:	e0823003 	add	r3, r2, r3
80022298:	e5934000 	ldr	r4, [r3]
8002229c:	e51b3028 	ldr	r3, [fp, #-40]	; 0xffffffd8
800222a0:	e1a03103 	lsl	r3, r3, #2
800222a4:	e51b2124 	ldr	r2, [fp, #-292]	; 0xfffffedc
800222a8:	e0823003 	add	r3, r2, r3
800222ac:	e5933000 	ldr	r3, [r3]
800222b0:	e1a00003 	mov	r0, r3
800222b4:	ebfff88a 	bl	800204e4 <strlen>
800222b8:	e1a03000 	mov	r3, r0
800222bc:	e2833001 	add	r3, r3, #1
800222c0:	e1a02004 	mov	r2, r4
800222c4:	e51b1030 	ldr	r1, [fp, #-48]	; 0xffffffd0
800222c8:	e51b0014 	ldr	r0, [fp, #-20]	; 0xffffffec
800222cc:	eb001afd 	bl	80028ec8 <copyout>
800222d0:	e1a03000 	mov	r3, r0
800222d4:	e3530000 	cmp	r3, #0
800222d8:	ba00007d 	blt	800224d4 <exec+0x480>
800222dc:	e51b3028 	ldr	r3, [fp, #-40]	; 0xffffffd8
800222e0:	e1a03103 	lsl	r3, r3, #2
800222e4:	e24b200c 	sub	r2, fp, #12
800222e8:	e0823003 	add	r3, r2, r3
800222ec:	e51b2030 	ldr	r2, [fp, #-48]	; 0xffffffd0
800222f0:	e503210c 	str	r2, [r3, #-268]	; 0xfffffef4
800222f4:	e51b3028 	ldr	r3, [fp, #-40]	; 0xffffffd8
800222f8:	e2833001 	add	r3, r3, #1
800222fc:	e50b3028 	str	r3, [fp, #-40]	; 0xffffffd8
80022300:	e51b3028 	ldr	r3, [fp, #-40]	; 0xffffffd8
80022304:	e1a03103 	lsl	r3, r3, #2
80022308:	e51b2124 	ldr	r2, [fp, #-292]	; 0xfffffedc
8002230c:	e0823003 	add	r3, r2, r3
80022310:	e5933000 	ldr	r3, [r3]
80022314:	e3530000 	cmp	r3, #0
80022318:	1affffc9 	bne	80022244 <exec+0x1f0>
8002231c:	e51b3028 	ldr	r3, [fp, #-40]	; 0xffffffd8
80022320:	e1a03103 	lsl	r3, r3, #2
80022324:	e24b200c 	sub	r2, fp, #12
80022328:	e0823003 	add	r3, r2, r3
8002232c:	e3a02000 	mov	r2, #0
80022330:	e503210c 	str	r2, [r3, #-268]	; 0xfffffef4
80022334:	e59f31e0 	ldr	r3, [pc, #480]	; 8002251c <exec+0x4c8>
80022338:	e5933000 	ldr	r3, [r3]
8002233c:	e5933018 	ldr	r3, [r3, #24]
80022340:	e51b2028 	ldr	r2, [fp, #-40]	; 0xffffffd8
80022344:	e5832010 	str	r2, [r3, #16]
80022348:	e51b3028 	ldr	r3, [fp, #-40]	; 0xffffffd8
8002234c:	e2833001 	add	r3, r3, #1
80022350:	e1a02103 	lsl	r2, r3, #2
80022354:	e59f31c0 	ldr	r3, [pc, #448]	; 8002251c <exec+0x4c8>
80022358:	e5933000 	ldr	r3, [r3]
8002235c:	e5933018 	ldr	r3, [r3, #24]
80022360:	e51b1030 	ldr	r1, [fp, #-48]	; 0xffffffd0
80022364:	e0412002 	sub	r2, r1, r2
80022368:	e5832014 	str	r2, [r3, #20]
8002236c:	e51b3028 	ldr	r3, [fp, #-40]	; 0xffffffd8
80022370:	e2833001 	add	r3, r3, #1
80022374:	e1a03103 	lsl	r3, r3, #2
80022378:	e51b2030 	ldr	r2, [fp, #-48]	; 0xffffffd0
8002237c:	e0423003 	sub	r3, r2, r3
80022380:	e50b3030 	str	r3, [fp, #-48]	; 0xffffffd0
80022384:	e51b3028 	ldr	r3, [fp, #-40]	; 0xffffffd8
80022388:	e2833001 	add	r3, r3, #1
8002238c:	e1a03103 	lsl	r3, r3, #2
80022390:	e24b2f46 	sub	r2, fp, #280	; 0x118
80022394:	e51b1030 	ldr	r1, [fp, #-48]	; 0xffffffd0
80022398:	e51b0014 	ldr	r0, [fp, #-20]	; 0xffffffec
8002239c:	eb001ac9 	bl	80028ec8 <copyout>
800223a0:	e1a03000 	mov	r3, r0
800223a4:	e3530000 	cmp	r3, #0
800223a8:	ba00004b 	blt	800224dc <exec+0x488>
800223ac:	e51b3120 	ldr	r3, [fp, #-288]	; 0xfffffee0
800223b0:	e50b3018 	str	r3, [fp, #-24]	; 0xffffffe8
800223b4:	e51b3018 	ldr	r3, [fp, #-24]	; 0xffffffe8
800223b8:	e50b301c 	str	r3, [fp, #-28]	; 0xffffffe4
800223bc:	ea000009 	b	800223e8 <exec+0x394>
800223c0:	e51b3018 	ldr	r3, [fp, #-24]	; 0xffffffe8
800223c4:	e5d33000 	ldrb	r3, [r3]
800223c8:	e353002f 	cmp	r3, #47	; 0x2f
800223cc:	1a000002 	bne	800223dc <exec+0x388>
800223d0:	e51b3018 	ldr	r3, [fp, #-24]	; 0xffffffe8
800223d4:	e2833001 	add	r3, r3, #1
800223d8:	e50b301c 	str	r3, [fp, #-28]	; 0xffffffe4
800223dc:	e51b3018 	ldr	r3, [fp, #-24]	; 0xffffffe8
800223e0:	e2833001 	add	r3, r3, #1
800223e4:	e50b3018 	str	r3, [fp, #-24]	; 0xffffffe8
800223e8:	e51b3018 	ldr	r3, [fp, #-24]	; 0xffffffe8
800223ec:	e5d33000 	ldrb	r3, [r3]
800223f0:	e3530000 	cmp	r3, #0
800223f4:	1afffff1 	bne	800223c0 <exec+0x36c>
800223f8:	e59f311c 	ldr	r3, [pc, #284]	; 8002251c <exec+0x4c8>
800223fc:	e5933000 	ldr	r3, [r3]
80022400:	e283306c 	add	r3, r3, #108	; 0x6c
80022404:	e3a02010 	mov	r2, #16
80022408:	e51b101c 	ldr	r1, [fp, #-28]	; 0xffffffe4
8002240c:	e1a00003 	mov	r0, r3
80022410:	ebfff80d 	bl	8002044c <safestrcpy>
80022414:	e59f3100 	ldr	r3, [pc, #256]	; 8002251c <exec+0x4c8>
80022418:	e5933000 	ldr	r3, [r3]
8002241c:	e5933004 	ldr	r3, [r3, #4]
80022420:	e50b3034 	str	r3, [fp, #-52]	; 0xffffffcc
80022424:	e59f30f0 	ldr	r3, [pc, #240]	; 8002251c <exec+0x4c8>
80022428:	e5933000 	ldr	r3, [r3]
8002242c:	e51b2014 	ldr	r2, [fp, #-20]	; 0xffffffec
80022430:	e5832004 	str	r2, [r3, #4]
80022434:	e59f30e0 	ldr	r3, [pc, #224]	; 8002251c <exec+0x4c8>
80022438:	e5933000 	ldr	r3, [r3]
8002243c:	e51b202c 	ldr	r2, [fp, #-44]	; 0xffffffd4
80022440:	e5832000 	str	r2, [r3]
80022444:	e59f30d0 	ldr	r3, [pc, #208]	; 8002251c <exec+0x4c8>
80022448:	e5933000 	ldr	r3, [r3]
8002244c:	e5933018 	ldr	r3, [r3, #24]
80022450:	e51b2050 	ldr	r2, [fp, #-80]	; 0xffffffb0
80022454:	e5832044 	str	r2, [r3, #68]	; 0x44
80022458:	e59f30bc 	ldr	r3, [pc, #188]	; 8002251c <exec+0x4c8>
8002245c:	e5933000 	ldr	r3, [r3]
80022460:	e5933018 	ldr	r3, [r3, #24]
80022464:	e51b2030 	ldr	r2, [fp, #-48]	; 0xffffffd0
80022468:	e5832000 	str	r2, [r3]
8002246c:	e59f30a8 	ldr	r3, [pc, #168]	; 8002251c <exec+0x4c8>
80022470:	e5933000 	ldr	r3, [r3]
80022474:	e1a00003 	mov	r0, r3
80022478:	eb0018c1 	bl	80028784 <switchuvm>
8002247c:	e51b0034 	ldr	r0, [fp, #-52]	; 0xffffffcc
80022480:	eb0019cb 	bl	80028bb4 <freevm>
80022484:	e3a03000 	mov	r3, #0
80022488:	ea00001f 	b	8002250c <exec+0x4b8>
8002248c:	e1a00000 	nop			; (mov r0, r0)
80022490:	ea000012 	b	800224e0 <exec+0x48c>
80022494:	e1a00000 	nop			; (mov r0, r0)
80022498:	ea000010 	b	800224e0 <exec+0x48c>
8002249c:	e1a00000 	nop			; (mov r0, r0)
800224a0:	ea00000e 	b	800224e0 <exec+0x48c>
800224a4:	e1a00000 	nop			; (mov r0, r0)
800224a8:	ea00000c 	b	800224e0 <exec+0x48c>
800224ac:	e1a00000 	nop			; (mov r0, r0)
800224b0:	ea00000a 	b	800224e0 <exec+0x48c>
800224b4:	e1a00000 	nop			; (mov r0, r0)
800224b8:	ea000008 	b	800224e0 <exec+0x48c>
800224bc:	e1a00000 	nop			; (mov r0, r0)
800224c0:	ea000006 	b	800224e0 <exec+0x48c>
800224c4:	e1a00000 	nop			; (mov r0, r0)
800224c8:	ea000004 	b	800224e0 <exec+0x48c>
800224cc:	e1a00000 	nop			; (mov r0, r0)
800224d0:	ea000002 	b	800224e0 <exec+0x48c>
800224d4:	e1a00000 	nop			; (mov r0, r0)
800224d8:	ea000000 	b	800224e0 <exec+0x48c>
800224dc:	e1a00000 	nop			; (mov r0, r0)
800224e0:	e51b3014 	ldr	r3, [fp, #-20]	; 0xffffffec
800224e4:	e3530000 	cmp	r3, #0
800224e8:	0a000001 	beq	800224f4 <exec+0x4a0>
800224ec:	e51b0014 	ldr	r0, [fp, #-20]	; 0xffffffec
800224f0:	eb0019af 	bl	80028bb4 <freevm>
800224f4:	e51b3010 	ldr	r3, [fp, #-16]
800224f8:	e3530000 	cmp	r3, #0
800224fc:	0a000001 	beq	80022508 <exec+0x4b4>
80022500:	e51b0010 	ldr	r0, [fp, #-16]
80022504:	eb0003dc 	bl	8002347c <iunlockput>
80022508:	e3e03000 	mvn	r3, #0
8002250c:	e1a00003 	mov	r0, r3
80022510:	e24bd008 	sub	sp, fp, #8
80022514:	e8bd8810 	pop	{r4, fp, pc}
80022518:	464c457f 	.word	0x464c457f
8002251c:	800ae61c 	.word	0x800ae61c

80022520 <fileinit>:
80022520:	e92d4800 	push	{fp, lr}
80022524:	e28db004 	add	fp, sp, #4
80022528:	e59f100c 	ldr	r1, [pc, #12]	; 8002253c <fileinit+0x1c>
8002252c:	e59f000c 	ldr	r0, [pc, #12]	; 80022540 <fileinit+0x20>
80022530:	eb000e1e 	bl	80025db0 <initlock>
80022534:	e1a00000 	nop			; (mov r0, r0)
80022538:	e8bd8800 	pop	{fp, pc}
8002253c:	8002a180 	.word	0x8002a180
80022540:	800acb04 	.word	0x800acb04

80022544 <filealloc>:
80022544:	e92d4800 	push	{fp, lr}
80022548:	e28db004 	add	fp, sp, #4
8002254c:	e24dd008 	sub	sp, sp, #8
80022550:	e59f006c 	ldr	r0, [pc, #108]	; 800225c4 <filealloc+0x80>
80022554:	eb000e27 	bl	80025df8 <acquire>
80022558:	e59f3068 	ldr	r3, [pc, #104]	; 800225c8 <filealloc+0x84>
8002255c:	e50b3008 	str	r3, [fp, #-8]
80022560:	ea00000d 	b	8002259c <filealloc+0x58>
80022564:	e51b3008 	ldr	r3, [fp, #-8]
80022568:	e5933004 	ldr	r3, [r3, #4]
8002256c:	e3530000 	cmp	r3, #0
80022570:	1a000006 	bne	80022590 <filealloc+0x4c>
80022574:	e51b3008 	ldr	r3, [fp, #-8]
80022578:	e3a02001 	mov	r2, #1
8002257c:	e5832004 	str	r2, [r3, #4]
80022580:	e59f003c 	ldr	r0, [pc, #60]	; 800225c4 <filealloc+0x80>
80022584:	eb000e26 	bl	80025e24 <release>
80022588:	e51b3008 	ldr	r3, [fp, #-8]
8002258c:	ea000009 	b	800225b8 <filealloc+0x74>
80022590:	e51b3008 	ldr	r3, [fp, #-8]
80022594:	e2833018 	add	r3, r3, #24
80022598:	e50b3008 	str	r3, [fp, #-8]
8002259c:	e59f2028 	ldr	r2, [pc, #40]	; 800225cc <filealloc+0x88>
800225a0:	e51b3008 	ldr	r3, [fp, #-8]
800225a4:	e1530002 	cmp	r3, r2
800225a8:	3affffed 	bcc	80022564 <filealloc+0x20>
800225ac:	e59f0010 	ldr	r0, [pc, #16]	; 800225c4 <filealloc+0x80>
800225b0:	eb000e1b 	bl	80025e24 <release>
800225b4:	e3a03000 	mov	r3, #0
800225b8:	e1a00003 	mov	r0, r3
800225bc:	e24bd004 	sub	sp, fp, #4
800225c0:	e8bd8800 	pop	{fp, pc}
800225c4:	800acb04 	.word	0x800acb04
800225c8:	800acb38 	.word	0x800acb38
800225cc:	800ad498 	.word	0x800ad498

800225d0 <filedup>:
800225d0:	e92d4800 	push	{fp, lr}
800225d4:	e28db004 	add	fp, sp, #4
800225d8:	e24dd008 	sub	sp, sp, #8
800225dc:	e50b0008 	str	r0, [fp, #-8]
800225e0:	e59f0044 	ldr	r0, [pc, #68]	; 8002262c <filedup+0x5c>
800225e4:	eb000e03 	bl	80025df8 <acquire>
800225e8:	e51b3008 	ldr	r3, [fp, #-8]
800225ec:	e5933004 	ldr	r3, [r3, #4]
800225f0:	e3530000 	cmp	r3, #0
800225f4:	ca000001 	bgt	80022600 <filedup+0x30>
800225f8:	e59f0030 	ldr	r0, [pc, #48]	; 80022630 <filedup+0x60>
800225fc:	ebfffd4f 	bl	80021b40 <panic>
80022600:	e51b3008 	ldr	r3, [fp, #-8]
80022604:	e5933004 	ldr	r3, [r3, #4]
80022608:	e2832001 	add	r2, r3, #1
8002260c:	e51b3008 	ldr	r3, [fp, #-8]
80022610:	e5832004 	str	r2, [r3, #4]
80022614:	e59f0010 	ldr	r0, [pc, #16]	; 8002262c <filedup+0x5c>
80022618:	eb000e01 	bl	80025e24 <release>
8002261c:	e51b3008 	ldr	r3, [fp, #-8]
80022620:	e1a00003 	mov	r0, r3
80022624:	e24bd004 	sub	sp, fp, #4
80022628:	e8bd8800 	pop	{fp, pc}
8002262c:	800acb04 	.word	0x800acb04
80022630:	8002a188 	.word	0x8002a188

80022634 <fileclose>:
80022634:	e92d4800 	push	{fp, lr}
80022638:	e28db004 	add	fp, sp, #4
8002263c:	e24dd020 	sub	sp, sp, #32
80022640:	e50b0020 	str	r0, [fp, #-32]	; 0xffffffe0
80022644:	e59f00d0 	ldr	r0, [pc, #208]	; 8002271c <fileclose+0xe8>
80022648:	eb000dea 	bl	80025df8 <acquire>
8002264c:	e51b3020 	ldr	r3, [fp, #-32]	; 0xffffffe0
80022650:	e5933004 	ldr	r3, [r3, #4]
80022654:	e3530000 	cmp	r3, #0
80022658:	ca000001 	bgt	80022664 <fileclose+0x30>
8002265c:	e59f00bc 	ldr	r0, [pc, #188]	; 80022720 <fileclose+0xec>
80022660:	ebfffd36 	bl	80021b40 <panic>
80022664:	e51b3020 	ldr	r3, [fp, #-32]	; 0xffffffe0
80022668:	e5933004 	ldr	r3, [r3, #4]
8002266c:	e2432001 	sub	r2, r3, #1
80022670:	e51b3020 	ldr	r3, [fp, #-32]	; 0xffffffe0
80022674:	e5832004 	str	r2, [r3, #4]
80022678:	e51b3020 	ldr	r3, [fp, #-32]	; 0xffffffe0
8002267c:	e5933004 	ldr	r3, [r3, #4]
80022680:	e3530000 	cmp	r3, #0
80022684:	da000002 	ble	80022694 <fileclose+0x60>
80022688:	e59f008c 	ldr	r0, [pc, #140]	; 8002271c <fileclose+0xe8>
8002268c:	eb000de4 	bl	80025e24 <release>
80022690:	ea00001f 	b	80022714 <fileclose+0xe0>
80022694:	e51b3020 	ldr	r3, [fp, #-32]	; 0xffffffe0
80022698:	e24bc01c 	sub	ip, fp, #28
8002269c:	e1a0e003 	mov	lr, r3
800226a0:	e8be000f 	ldm	lr!, {r0, r1, r2, r3}
800226a4:	e8ac000f 	stmia	ip!, {r0, r1, r2, r3}
800226a8:	e89e0003 	ldm	lr, {r0, r1}
800226ac:	e88c0003 	stm	ip, {r0, r1}
800226b0:	e51b3020 	ldr	r3, [fp, #-32]	; 0xffffffe0
800226b4:	e3a02000 	mov	r2, #0
800226b8:	e5832004 	str	r2, [r3, #4]
800226bc:	e51b3020 	ldr	r3, [fp, #-32]	; 0xffffffe0
800226c0:	e3a02000 	mov	r2, #0
800226c4:	e5c32000 	strb	r2, [r3]
800226c8:	e59f004c 	ldr	r0, [pc, #76]	; 8002271c <fileclose+0xe8>
800226cc:	eb000dd4 	bl	80025e24 <release>
800226d0:	e55b301c 	ldrb	r3, [fp, #-28]	; 0xffffffe4
800226d4:	e3530001 	cmp	r3, #1
800226d8:	1a000005 	bne	800226f4 <fileclose+0xc0>
800226dc:	e51b3010 	ldr	r3, [fp, #-16]
800226e0:	e55b2013 	ldrb	r2, [fp, #-19]	; 0xffffffed
800226e4:	e1a01002 	mov	r1, r2
800226e8:	e1a00003 	mov	r0, r3
800226ec:	eb0008f3 	bl	80024ac0 <pipeclose>
800226f0:	ea000007 	b	80022714 <fileclose+0xe0>
800226f4:	e55b301c 	ldrb	r3, [fp, #-28]	; 0xffffffe4
800226f8:	e3530002 	cmp	r3, #2
800226fc:	1a000004 	bne	80022714 <fileclose+0xe0>
80022700:	eb000747 	bl	80024424 <begin_trans>
80022704:	e51b300c 	ldr	r3, [fp, #-12]
80022708:	e1a00003 	mov	r0, r3
8002270c:	eb00031f 	bl	80023390 <iput>
80022710:	eb000757 	bl	80024474 <commit_trans>
80022714:	e24bd004 	sub	sp, fp, #4
80022718:	e8bd8800 	pop	{fp, pc}
8002271c:	800acb04 	.word	0x800acb04
80022720:	8002a190 	.word	0x8002a190

80022724 <filestat>:
80022724:	e92d4800 	push	{fp, lr}
80022728:	e28db004 	add	fp, sp, #4
8002272c:	e24dd008 	sub	sp, sp, #8
80022730:	e50b0008 	str	r0, [fp, #-8]
80022734:	e50b100c 	str	r1, [fp, #-12]
80022738:	e51b3008 	ldr	r3, [fp, #-8]
8002273c:	e5d33000 	ldrb	r3, [r3]
80022740:	e3530002 	cmp	r3, #2
80022744:	1a00000e 	bne	80022784 <filestat+0x60>
80022748:	e51b3008 	ldr	r3, [fp, #-8]
8002274c:	e5933010 	ldr	r3, [r3, #16]
80022750:	e1a00003 	mov	r0, r3
80022754:	eb000287 	bl	80023178 <ilock>
80022758:	e51b3008 	ldr	r3, [fp, #-8]
8002275c:	e5933010 	ldr	r3, [r3, #16]
80022760:	e51b100c 	ldr	r1, [fp, #-12]
80022764:	e1a00003 	mov	r0, r3
80022768:	eb000410 	bl	800237b0 <stati>
8002276c:	e51b3008 	ldr	r3, [fp, #-8]
80022770:	e5933010 	ldr	r3, [r3, #16]
80022774:	e1a00003 	mov	r0, r3
80022778:	eb0002e2 	bl	80023308 <iunlock>
8002277c:	e3a03000 	mov	r3, #0
80022780:	ea000000 	b	80022788 <filestat+0x64>
80022784:	e3e03000 	mvn	r3, #0
80022788:	e1a00003 	mov	r0, r3
8002278c:	e24bd004 	sub	sp, fp, #4
80022790:	e8bd8800 	pop	{fp, pc}

80022794 <fileread>:
80022794:	e92d4800 	push	{fp, lr}
80022798:	e28db004 	add	fp, sp, #4
8002279c:	e24dd018 	sub	sp, sp, #24
800227a0:	e50b0010 	str	r0, [fp, #-16]
800227a4:	e50b1014 	str	r1, [fp, #-20]	; 0xffffffec
800227a8:	e50b2018 	str	r2, [fp, #-24]	; 0xffffffe8
800227ac:	e51b3010 	ldr	r3, [fp, #-16]
800227b0:	e5d33008 	ldrb	r3, [r3, #8]
800227b4:	e3530000 	cmp	r3, #0
800227b8:	1a000001 	bne	800227c4 <fileread+0x30>
800227bc:	e3e03000 	mvn	r3, #0
800227c0:	ea00002c 	b	80022878 <fileread+0xe4>
800227c4:	e51b3010 	ldr	r3, [fp, #-16]
800227c8:	e5d33000 	ldrb	r3, [r3]
800227cc:	e3530001 	cmp	r3, #1
800227d0:	1a000007 	bne	800227f4 <fileread+0x60>
800227d4:	e51b3010 	ldr	r3, [fp, #-16]
800227d8:	e593300c 	ldr	r3, [r3, #12]
800227dc:	e51b2018 	ldr	r2, [fp, #-24]	; 0xffffffe8
800227e0:	e51b1014 	ldr	r1, [fp, #-20]	; 0xffffffec
800227e4:	e1a00003 	mov	r0, r3
800227e8:	eb00092d 	bl	80024ca4 <piperead>
800227ec:	e1a03000 	mov	r3, r0
800227f0:	ea000020 	b	80022878 <fileread+0xe4>
800227f4:	e51b3010 	ldr	r3, [fp, #-16]
800227f8:	e5d33000 	ldrb	r3, [r3]
800227fc:	e3530002 	cmp	r3, #2
80022800:	1a00001a 	bne	80022870 <fileread+0xdc>
80022804:	e51b3010 	ldr	r3, [fp, #-16]
80022808:	e5933010 	ldr	r3, [r3, #16]
8002280c:	e1a00003 	mov	r0, r3
80022810:	eb000258 	bl	80023178 <ilock>
80022814:	e51b3010 	ldr	r3, [fp, #-16]
80022818:	e5930010 	ldr	r0, [r3, #16]
8002281c:	e51b3010 	ldr	r3, [fp, #-16]
80022820:	e5932014 	ldr	r2, [r3, #20]
80022824:	e51b3018 	ldr	r3, [fp, #-24]	; 0xffffffe8
80022828:	e51b1014 	ldr	r1, [fp, #-20]	; 0xffffffec
8002282c:	eb0003fd 	bl	80023828 <readi>
80022830:	e50b0008 	str	r0, [fp, #-8]
80022834:	e51b3008 	ldr	r3, [fp, #-8]
80022838:	e3530000 	cmp	r3, #0
8002283c:	da000005 	ble	80022858 <fileread+0xc4>
80022840:	e51b3010 	ldr	r3, [fp, #-16]
80022844:	e5932014 	ldr	r2, [r3, #20]
80022848:	e51b3008 	ldr	r3, [fp, #-8]
8002284c:	e0822003 	add	r2, r2, r3
80022850:	e51b3010 	ldr	r3, [fp, #-16]
80022854:	e5832014 	str	r2, [r3, #20]
80022858:	e51b3010 	ldr	r3, [fp, #-16]
8002285c:	e5933010 	ldr	r3, [r3, #16]
80022860:	e1a00003 	mov	r0, r3
80022864:	eb0002a7 	bl	80023308 <iunlock>
80022868:	e51b3008 	ldr	r3, [fp, #-8]
8002286c:	ea000001 	b	80022878 <fileread+0xe4>
80022870:	e59f000c 	ldr	r0, [pc, #12]	; 80022884 <fileread+0xf0>
80022874:	ebfffcb1 	bl	80021b40 <panic>
80022878:	e1a00003 	mov	r0, r3
8002287c:	e24bd004 	sub	sp, fp, #4
80022880:	e8bd8800 	pop	{fp, pc}
80022884:	8002a19c 	.word	0x8002a19c

80022888 <filewrite>:
80022888:	e92d4800 	push	{fp, lr}
8002288c:	e28db004 	add	fp, sp, #4
80022890:	e24dd020 	sub	sp, sp, #32
80022894:	e50b0018 	str	r0, [fp, #-24]	; 0xffffffe8
80022898:	e50b101c 	str	r1, [fp, #-28]	; 0xffffffe4
8002289c:	e50b2020 	str	r2, [fp, #-32]	; 0xffffffe0
800228a0:	e51b3018 	ldr	r3, [fp, #-24]	; 0xffffffe8
800228a4:	e5d33009 	ldrb	r3, [r3, #9]
800228a8:	e3530000 	cmp	r3, #0
800228ac:	1a000001 	bne	800228b8 <filewrite+0x30>
800228b0:	e3e03000 	mvn	r3, #0
800228b4:	ea000058 	b	80022a1c <filewrite+0x194>
800228b8:	e51b3018 	ldr	r3, [fp, #-24]	; 0xffffffe8
800228bc:	e5d33000 	ldrb	r3, [r3]
800228c0:	e3530001 	cmp	r3, #1
800228c4:	1a000007 	bne	800228e8 <filewrite+0x60>
800228c8:	e51b3018 	ldr	r3, [fp, #-24]	; 0xffffffe8
800228cc:	e593300c 	ldr	r3, [r3, #12]
800228d0:	e51b2020 	ldr	r2, [fp, #-32]	; 0xffffffe0
800228d4:	e51b101c 	ldr	r1, [fp, #-28]	; 0xffffffe4
800228d8:	e1a00003 	mov	r0, r3
800228dc:	eb0008a9 	bl	80024b88 <pipewrite>
800228e0:	e1a03000 	mov	r3, r0
800228e4:	ea00004c 	b	80022a1c <filewrite+0x194>
800228e8:	e51b3018 	ldr	r3, [fp, #-24]	; 0xffffffe8
800228ec:	e5d33000 	ldrb	r3, [r3]
800228f0:	e3530002 	cmp	r3, #2
800228f4:	1a000046 	bne	80022a14 <filewrite+0x18c>
800228f8:	e3a03c06 	mov	r3, #1536	; 0x600
800228fc:	e50b3010 	str	r3, [fp, #-16]
80022900:	e3a03000 	mov	r3, #0
80022904:	e50b3008 	str	r3, [fp, #-8]
80022908:	ea000033 	b	800229dc <filewrite+0x154>
8002290c:	e51b2020 	ldr	r2, [fp, #-32]	; 0xffffffe0
80022910:	e51b3008 	ldr	r3, [fp, #-8]
80022914:	e0423003 	sub	r3, r2, r3
80022918:	e50b300c 	str	r3, [fp, #-12]
8002291c:	e51b200c 	ldr	r2, [fp, #-12]
80022920:	e51b3010 	ldr	r3, [fp, #-16]
80022924:	e1520003 	cmp	r2, r3
80022928:	da000001 	ble	80022934 <filewrite+0xac>
8002292c:	e51b3010 	ldr	r3, [fp, #-16]
80022930:	e50b300c 	str	r3, [fp, #-12]
80022934:	eb0006ba 	bl	80024424 <begin_trans>
80022938:	e51b3018 	ldr	r3, [fp, #-24]	; 0xffffffe8
8002293c:	e5933010 	ldr	r3, [r3, #16]
80022940:	e1a00003 	mov	r0, r3
80022944:	eb00020b 	bl	80023178 <ilock>
80022948:	e51b3018 	ldr	r3, [fp, #-24]	; 0xffffffe8
8002294c:	e5930010 	ldr	r0, [r3, #16]
80022950:	e51b3008 	ldr	r3, [fp, #-8]
80022954:	e51b201c 	ldr	r2, [fp, #-28]	; 0xffffffe4
80022958:	e0821003 	add	r1, r2, r3
8002295c:	e51b3018 	ldr	r3, [fp, #-24]	; 0xffffffe8
80022960:	e5932014 	ldr	r2, [r3, #20]
80022964:	e51b300c 	ldr	r3, [fp, #-12]
80022968:	eb000429 	bl	80023a14 <writei>
8002296c:	e50b0014 	str	r0, [fp, #-20]	; 0xffffffec
80022970:	e51b3014 	ldr	r3, [fp, #-20]	; 0xffffffec
80022974:	e3530000 	cmp	r3, #0
80022978:	da000005 	ble	80022994 <filewrite+0x10c>
8002297c:	e51b3018 	ldr	r3, [fp, #-24]	; 0xffffffe8
80022980:	e5932014 	ldr	r2, [r3, #20]
80022984:	e51b3014 	ldr	r3, [fp, #-20]	; 0xffffffec
80022988:	e0822003 	add	r2, r2, r3
8002298c:	e51b3018 	ldr	r3, [fp, #-24]	; 0xffffffe8
80022990:	e5832014 	str	r2, [r3, #20]
80022994:	e51b3018 	ldr	r3, [fp, #-24]	; 0xffffffe8
80022998:	e5933010 	ldr	r3, [r3, #16]
8002299c:	e1a00003 	mov	r0, r3
800229a0:	eb000258 	bl	80023308 <iunlock>
800229a4:	eb0006b2 	bl	80024474 <commit_trans>
800229a8:	e51b3014 	ldr	r3, [fp, #-20]	; 0xffffffec
800229ac:	e3530000 	cmp	r3, #0
800229b0:	ba00000e 	blt	800229f0 <filewrite+0x168>
800229b4:	e51b2014 	ldr	r2, [fp, #-20]	; 0xffffffec
800229b8:	e51b300c 	ldr	r3, [fp, #-12]
800229bc:	e1520003 	cmp	r2, r3
800229c0:	0a000001 	beq	800229cc <filewrite+0x144>
800229c4:	e59f005c 	ldr	r0, [pc, #92]	; 80022a28 <filewrite+0x1a0>
800229c8:	ebfffc5c 	bl	80021b40 <panic>
800229cc:	e51b2008 	ldr	r2, [fp, #-8]
800229d0:	e51b3014 	ldr	r3, [fp, #-20]	; 0xffffffec
800229d4:	e0823003 	add	r3, r2, r3
800229d8:	e50b3008 	str	r3, [fp, #-8]
800229dc:	e51b2008 	ldr	r2, [fp, #-8]
800229e0:	e51b3020 	ldr	r3, [fp, #-32]	; 0xffffffe0
800229e4:	e1520003 	cmp	r2, r3
800229e8:	baffffc7 	blt	8002290c <filewrite+0x84>
800229ec:	ea000000 	b	800229f4 <filewrite+0x16c>
800229f0:	e1a00000 	nop			; (mov r0, r0)
800229f4:	e51b2008 	ldr	r2, [fp, #-8]
800229f8:	e51b3020 	ldr	r3, [fp, #-32]	; 0xffffffe0
800229fc:	e1520003 	cmp	r2, r3
80022a00:	1a000001 	bne	80022a0c <filewrite+0x184>
80022a04:	e51b3020 	ldr	r3, [fp, #-32]	; 0xffffffe0
80022a08:	ea000003 	b	80022a1c <filewrite+0x194>
80022a0c:	e3e03000 	mvn	r3, #0
80022a10:	ea000001 	b	80022a1c <filewrite+0x194>
80022a14:	e59f0010 	ldr	r0, [pc, #16]	; 80022a2c <filewrite+0x1a4>
80022a18:	ebfffc48 	bl	80021b40 <panic>
80022a1c:	e1a00003 	mov	r0, r3
80022a20:	e24bd004 	sub	sp, fp, #4
80022a24:	e8bd8800 	pop	{fp, pc}
80022a28:	8002a1a8 	.word	0x8002a1a8
80022a2c:	8002a1b8 	.word	0x8002a1b8

80022a30 <readsb>:
80022a30:	e92d4800 	push	{fp, lr}
80022a34:	e28db004 	add	fp, sp, #4
80022a38:	e24dd010 	sub	sp, sp, #16
80022a3c:	e50b0010 	str	r0, [fp, #-16]
80022a40:	e50b1014 	str	r1, [fp, #-20]	; 0xffffffec
80022a44:	e51b3010 	ldr	r3, [fp, #-16]
80022a48:	e3a01001 	mov	r1, #1
80022a4c:	e1a00003 	mov	r0, r3
80022a50:	ebfff82a 	bl	80020b00 <bread>
80022a54:	e50b0008 	str	r0, [fp, #-8]
80022a58:	e51b3008 	ldr	r3, [fp, #-8]
80022a5c:	e2833018 	add	r3, r3, #24
80022a60:	e3a02010 	mov	r2, #16
80022a64:	e1a01003 	mov	r1, r3
80022a68:	e51b0014 	ldr	r0, [fp, #-20]	; 0xffffffec
80022a6c:	ebfff5d4 	bl	800201c4 <memmove>
80022a70:	e51b0008 	ldr	r0, [fp, #-8]
80022a74:	ebfff84b 	bl	80020ba8 <brelse>
80022a78:	e1a00000 	nop			; (mov r0, r0)
80022a7c:	e24bd004 	sub	sp, fp, #4
80022a80:	e8bd8800 	pop	{fp, pc}

80022a84 <bzero>:
80022a84:	e92d4800 	push	{fp, lr}
80022a88:	e28db004 	add	fp, sp, #4
80022a8c:	e24dd010 	sub	sp, sp, #16
80022a90:	e50b0010 	str	r0, [fp, #-16]
80022a94:	e50b1014 	str	r1, [fp, #-20]	; 0xffffffec
80022a98:	e51b3010 	ldr	r3, [fp, #-16]
80022a9c:	e51b2014 	ldr	r2, [fp, #-20]	; 0xffffffec
80022aa0:	e1a01002 	mov	r1, r2
80022aa4:	e1a00003 	mov	r0, r3
80022aa8:	ebfff814 	bl	80020b00 <bread>
80022aac:	e50b0008 	str	r0, [fp, #-8]
80022ab0:	e51b3008 	ldr	r3, [fp, #-8]
80022ab4:	e2833018 	add	r3, r3, #24
80022ab8:	e3a02c02 	mov	r2, #512	; 0x200
80022abc:	e3a01000 	mov	r1, #0
80022ac0:	e1a00003 	mov	r0, r3
80022ac4:	ebfff54d 	bl	80020000 <memset>
80022ac8:	e51b0008 	ldr	r0, [fp, #-8]
80022acc:	eb000680 	bl	800244d4 <log_write>
80022ad0:	e51b0008 	ldr	r0, [fp, #-8]
80022ad4:	ebfff833 	bl	80020ba8 <brelse>
80022ad8:	e1a00000 	nop			; (mov r0, r0)
80022adc:	e24bd004 	sub	sp, fp, #4
80022ae0:	e8bd8800 	pop	{fp, pc}

80022ae4 <balloc>:
80022ae4:	e92d4800 	push	{fp, lr}
80022ae8:	e28db004 	add	fp, sp, #4
80022aec:	e24dd028 	sub	sp, sp, #40	; 0x28
80022af0:	e50b0028 	str	r0, [fp, #-40]	; 0xffffffd8
80022af4:	e3a03000 	mov	r3, #0
80022af8:	e50b3010 	str	r3, [fp, #-16]
80022afc:	e51b3028 	ldr	r3, [fp, #-40]	; 0xffffffd8
80022b00:	e24b2024 	sub	r2, fp, #36	; 0x24
80022b04:	e1a01002 	mov	r1, r2
80022b08:	e1a00003 	mov	r0, r3
80022b0c:	ebffffc7 	bl	80022a30 <readsb>
80022b10:	e3a03000 	mov	r3, #0
80022b14:	e50b3008 	str	r3, [fp, #-8]
80022b18:	ea00005c 	b	80022c90 <balloc+0x1ac>
80022b1c:	e51b3008 	ldr	r3, [fp, #-8]
80022b20:	e2832eff 	add	r2, r3, #4080	; 0xff0
80022b24:	e282200f 	add	r2, r2, #15
80022b28:	e3530000 	cmp	r3, #0
80022b2c:	b1a03002 	movlt	r3, r2
80022b30:	a1a03003 	movge	r3, r3
80022b34:	e1a03643 	asr	r3, r3, #12
80022b38:	e1a02003 	mov	r2, r3
80022b3c:	e51b301c 	ldr	r3, [fp, #-28]	; 0xffffffe4
80022b40:	e1a031a3 	lsr	r3, r3, #3
80022b44:	e0823003 	add	r3, r2, r3
80022b48:	e2833003 	add	r3, r3, #3
80022b4c:	e1a01003 	mov	r1, r3
80022b50:	e51b0028 	ldr	r0, [fp, #-40]	; 0xffffffd8
80022b54:	ebfff7e9 	bl	80020b00 <bread>
80022b58:	e50b0010 	str	r0, [fp, #-16]
80022b5c:	e3a03000 	mov	r3, #0
80022b60:	e50b300c 	str	r3, [fp, #-12]
80022b64:	ea00003a 	b	80022c54 <balloc+0x170>
80022b68:	e51b300c 	ldr	r3, [fp, #-12]
80022b6c:	e2732000 	rsbs	r2, r3, #0
80022b70:	e2033007 	and	r3, r3, #7
80022b74:	e2022007 	and	r2, r2, #7
80022b78:	52623000 	rsbpl	r3, r2, #0
80022b7c:	e3a02001 	mov	r2, #1
80022b80:	e1a03312 	lsl	r3, r2, r3
80022b84:	e50b3014 	str	r3, [fp, #-20]	; 0xffffffec
80022b88:	e51b300c 	ldr	r3, [fp, #-12]
80022b8c:	e2832007 	add	r2, r3, #7
80022b90:	e3530000 	cmp	r3, #0
80022b94:	b1a03002 	movlt	r3, r2
80022b98:	a1a03003 	movge	r3, r3
80022b9c:	e1a031c3 	asr	r3, r3, #3
80022ba0:	e1a02003 	mov	r2, r3
80022ba4:	e51b3010 	ldr	r3, [fp, #-16]
80022ba8:	e0833002 	add	r3, r3, r2
80022bac:	e5d33018 	ldrb	r3, [r3, #24]
80022bb0:	e1a02003 	mov	r2, r3
80022bb4:	e51b3014 	ldr	r3, [fp, #-20]	; 0xffffffec
80022bb8:	e0033002 	and	r3, r3, r2
80022bbc:	e3530000 	cmp	r3, #0
80022bc0:	1a000020 	bne	80022c48 <balloc+0x164>
80022bc4:	e51b300c 	ldr	r3, [fp, #-12]
80022bc8:	e2832007 	add	r2, r3, #7
80022bcc:	e3530000 	cmp	r3, #0
80022bd0:	b1a03002 	movlt	r3, r2
80022bd4:	a1a03003 	movge	r3, r3
80022bd8:	e1a031c3 	asr	r3, r3, #3
80022bdc:	e51b2010 	ldr	r2, [fp, #-16]
80022be0:	e0822003 	add	r2, r2, r3
80022be4:	e5d22018 	ldrb	r2, [r2, #24]
80022be8:	e6af1072 	sxtb	r1, r2
80022bec:	e51b2014 	ldr	r2, [fp, #-20]	; 0xffffffec
80022bf0:	e6af2072 	sxtb	r2, r2
80022bf4:	e1812002 	orr	r2, r1, r2
80022bf8:	e6af2072 	sxtb	r2, r2
80022bfc:	e6ef1072 	uxtb	r1, r2
80022c00:	e51b2010 	ldr	r2, [fp, #-16]
80022c04:	e0823003 	add	r3, r2, r3
80022c08:	e1a02001 	mov	r2, r1
80022c0c:	e5c32018 	strb	r2, [r3, #24]
80022c10:	e51b0010 	ldr	r0, [fp, #-16]
80022c14:	eb00062e 	bl	800244d4 <log_write>
80022c18:	e51b0010 	ldr	r0, [fp, #-16]
80022c1c:	ebfff7e1 	bl	80020ba8 <brelse>
80022c20:	e51b0028 	ldr	r0, [fp, #-40]	; 0xffffffd8
80022c24:	e51b2008 	ldr	r2, [fp, #-8]
80022c28:	e51b300c 	ldr	r3, [fp, #-12]
80022c2c:	e0823003 	add	r3, r2, r3
80022c30:	e1a01003 	mov	r1, r3
80022c34:	ebffff92 	bl	80022a84 <bzero>
80022c38:	e51b2008 	ldr	r2, [fp, #-8]
80022c3c:	e51b300c 	ldr	r3, [fp, #-12]
80022c40:	e0823003 	add	r3, r2, r3
80022c44:	ea000017 	b	80022ca8 <balloc+0x1c4>
80022c48:	e51b300c 	ldr	r3, [fp, #-12]
80022c4c:	e2833001 	add	r3, r3, #1
80022c50:	e50b300c 	str	r3, [fp, #-12]
80022c54:	e51b300c 	ldr	r3, [fp, #-12]
80022c58:	e3530a01 	cmp	r3, #4096	; 0x1000
80022c5c:	aa000006 	bge	80022c7c <balloc+0x198>
80022c60:	e51b2008 	ldr	r2, [fp, #-8]
80022c64:	e51b300c 	ldr	r3, [fp, #-12]
80022c68:	e0823003 	add	r3, r2, r3
80022c6c:	e1a02003 	mov	r2, r3
80022c70:	e51b3024 	ldr	r3, [fp, #-36]	; 0xffffffdc
80022c74:	e1520003 	cmp	r2, r3
80022c78:	3affffba 	bcc	80022b68 <balloc+0x84>
80022c7c:	e51b0010 	ldr	r0, [fp, #-16]
80022c80:	ebfff7c8 	bl	80020ba8 <brelse>
80022c84:	e51b3008 	ldr	r3, [fp, #-8]
80022c88:	e2833a01 	add	r3, r3, #4096	; 0x1000
80022c8c:	e50b3008 	str	r3, [fp, #-8]
80022c90:	e51b2024 	ldr	r2, [fp, #-36]	; 0xffffffdc
80022c94:	e51b3008 	ldr	r3, [fp, #-8]
80022c98:	e1520003 	cmp	r2, r3
80022c9c:	8affff9e 	bhi	80022b1c <balloc+0x38>
80022ca0:	e59f000c 	ldr	r0, [pc, #12]	; 80022cb4 <balloc+0x1d0>
80022ca4:	ebfffba5 	bl	80021b40 <panic>
80022ca8:	e1a00003 	mov	r0, r3
80022cac:	e24bd004 	sub	sp, fp, #4
80022cb0:	e8bd8800 	pop	{fp, pc}
80022cb4:	8002a1c4 	.word	0x8002a1c4

80022cb8 <bfree>:
80022cb8:	e92d4800 	push	{fp, lr}
80022cbc:	e28db004 	add	fp, sp, #4
80022cc0:	e24dd028 	sub	sp, sp, #40	; 0x28
80022cc4:	e50b0028 	str	r0, [fp, #-40]	; 0xffffffd8
80022cc8:	e50b102c 	str	r1, [fp, #-44]	; 0xffffffd4
80022ccc:	e24b3020 	sub	r3, fp, #32
80022cd0:	e1a01003 	mov	r1, r3
80022cd4:	e51b0028 	ldr	r0, [fp, #-40]	; 0xffffffd8
80022cd8:	ebffff54 	bl	80022a30 <readsb>
80022cdc:	e51b0028 	ldr	r0, [fp, #-40]	; 0xffffffd8
80022ce0:	e51b302c 	ldr	r3, [fp, #-44]	; 0xffffffd4
80022ce4:	e1a02623 	lsr	r2, r3, #12
80022ce8:	e51b3018 	ldr	r3, [fp, #-24]	; 0xffffffe8
80022cec:	e1a031a3 	lsr	r3, r3, #3
80022cf0:	e0823003 	add	r3, r2, r3
80022cf4:	e2833003 	add	r3, r3, #3
80022cf8:	e1a01003 	mov	r1, r3
80022cfc:	ebfff77f 	bl	80020b00 <bread>
80022d00:	e50b0008 	str	r0, [fp, #-8]
80022d04:	e51b302c 	ldr	r3, [fp, #-44]	; 0xffffffd4
80022d08:	e1a03a03 	lsl	r3, r3, #20
80022d0c:	e1a03a23 	lsr	r3, r3, #20
80022d10:	e50b300c 	str	r3, [fp, #-12]
80022d14:	e51b300c 	ldr	r3, [fp, #-12]
80022d18:	e2732000 	rsbs	r2, r3, #0
80022d1c:	e2033007 	and	r3, r3, #7
80022d20:	e2022007 	and	r2, r2, #7
80022d24:	52623000 	rsbpl	r3, r2, #0
80022d28:	e3a02001 	mov	r2, #1
80022d2c:	e1a03312 	lsl	r3, r2, r3
80022d30:	e50b3010 	str	r3, [fp, #-16]
80022d34:	e51b300c 	ldr	r3, [fp, #-12]
80022d38:	e2832007 	add	r2, r3, #7
80022d3c:	e3530000 	cmp	r3, #0
80022d40:	b1a03002 	movlt	r3, r2
80022d44:	a1a03003 	movge	r3, r3
80022d48:	e1a031c3 	asr	r3, r3, #3
80022d4c:	e1a02003 	mov	r2, r3
80022d50:	e51b3008 	ldr	r3, [fp, #-8]
80022d54:	e0833002 	add	r3, r3, r2
80022d58:	e5d33018 	ldrb	r3, [r3, #24]
80022d5c:	e1a02003 	mov	r2, r3
80022d60:	e51b3010 	ldr	r3, [fp, #-16]
80022d64:	e0033002 	and	r3, r3, r2
80022d68:	e3530000 	cmp	r3, #0
80022d6c:	1a000001 	bne	80022d78 <bfree+0xc0>
80022d70:	e59f0070 	ldr	r0, [pc, #112]	; 80022de8 <bfree+0x130>
80022d74:	ebfffb71 	bl	80021b40 <panic>
80022d78:	e51b300c 	ldr	r3, [fp, #-12]
80022d7c:	e2832007 	add	r2, r3, #7
80022d80:	e3530000 	cmp	r3, #0
80022d84:	b1a03002 	movlt	r3, r2
80022d88:	a1a03003 	movge	r3, r3
80022d8c:	e1a031c3 	asr	r3, r3, #3
80022d90:	e51b2008 	ldr	r2, [fp, #-8]
80022d94:	e0822003 	add	r2, r2, r3
80022d98:	e5d22018 	ldrb	r2, [r2, #24]
80022d9c:	e6af1072 	sxtb	r1, r2
80022da0:	e51b2010 	ldr	r2, [fp, #-16]
80022da4:	e6af2072 	sxtb	r2, r2
80022da8:	e1e02002 	mvn	r2, r2
80022dac:	e6af2072 	sxtb	r2, r2
80022db0:	e0022001 	and	r2, r2, r1
80022db4:	e6af2072 	sxtb	r2, r2
80022db8:	e6ef1072 	uxtb	r1, r2
80022dbc:	e51b2008 	ldr	r2, [fp, #-8]
80022dc0:	e0823003 	add	r3, r2, r3
80022dc4:	e1a02001 	mov	r2, r1
80022dc8:	e5c32018 	strb	r2, [r3, #24]
80022dcc:	e51b0008 	ldr	r0, [fp, #-8]
80022dd0:	eb0005bf 	bl	800244d4 <log_write>
80022dd4:	e51b0008 	ldr	r0, [fp, #-8]
80022dd8:	ebfff772 	bl	80020ba8 <brelse>
80022ddc:	e1a00000 	nop			; (mov r0, r0)
80022de0:	e24bd004 	sub	sp, fp, #4
80022de4:	e8bd8800 	pop	{fp, pc}
80022de8:	8002a1dc 	.word	0x8002a1dc

80022dec <iinit>:
80022dec:	e92d4800 	push	{fp, lr}
80022df0:	e28db004 	add	fp, sp, #4
80022df4:	e59f100c 	ldr	r1, [pc, #12]	; 80022e08 <iinit+0x1c>
80022df8:	e59f000c 	ldr	r0, [pc, #12]	; 80022e0c <iinit+0x20>
80022dfc:	eb000beb 	bl	80025db0 <initlock>
80022e00:	e1a00000 	nop			; (mov r0, r0)
80022e04:	e8bd8800 	pop	{fp, pc}
80022e08:	8002a1f0 	.word	0x8002a1f0
80022e0c:	800ad4e8 	.word	0x800ad4e8

80022e10 <ialloc>:
80022e10:	e92d4800 	push	{fp, lr}
80022e14:	e28db004 	add	fp, sp, #4
80022e18:	e24dd028 	sub	sp, sp, #40	; 0x28
80022e1c:	e50b0028 	str	r0, [fp, #-40]	; 0xffffffd8
80022e20:	e1a03001 	mov	r3, r1
80022e24:	e14b32ba 	strh	r3, [fp, #-42]	; 0xffffffd6
80022e28:	e51b3028 	ldr	r3, [fp, #-40]	; 0xffffffd8
80022e2c:	e24b2020 	sub	r2, fp, #32
80022e30:	e1a01002 	mov	r1, r2
80022e34:	e1a00003 	mov	r0, r3
80022e38:	ebfffefc 	bl	80022a30 <readsb>
80022e3c:	e3a03001 	mov	r3, #1
80022e40:	e50b3008 	str	r3, [fp, #-8]
80022e44:	ea000027 	b	80022ee8 <ialloc+0xd8>
80022e48:	e51b3008 	ldr	r3, [fp, #-8]
80022e4c:	e1a031a3 	lsr	r3, r3, #3
80022e50:	e2833002 	add	r3, r3, #2
80022e54:	e1a01003 	mov	r1, r3
80022e58:	e51b0028 	ldr	r0, [fp, #-40]	; 0xffffffd8
80022e5c:	ebfff727 	bl	80020b00 <bread>
80022e60:	e50b000c 	str	r0, [fp, #-12]
80022e64:	e51b300c 	ldr	r3, [fp, #-12]
80022e68:	e2832018 	add	r2, r3, #24
80022e6c:	e51b3008 	ldr	r3, [fp, #-8]
80022e70:	e2033007 	and	r3, r3, #7
80022e74:	e1a03303 	lsl	r3, r3, #6
80022e78:	e0823003 	add	r3, r2, r3
80022e7c:	e50b3010 	str	r3, [fp, #-16]
80022e80:	e51b3010 	ldr	r3, [fp, #-16]
80022e84:	e1d330f0 	ldrsh	r3, [r3]
80022e88:	e3530000 	cmp	r3, #0
80022e8c:	1a000010 	bne	80022ed4 <ialloc+0xc4>
80022e90:	e3a02040 	mov	r2, #64	; 0x40
80022e94:	e3a01000 	mov	r1, #0
80022e98:	e51b0010 	ldr	r0, [fp, #-16]
80022e9c:	ebfff457 	bl	80020000 <memset>
80022ea0:	e51b3010 	ldr	r3, [fp, #-16]
80022ea4:	e15b22ba 	ldrh	r2, [fp, #-42]	; 0xffffffd6
80022ea8:	e1c320b0 	strh	r2, [r3]
80022eac:	e51b000c 	ldr	r0, [fp, #-12]
80022eb0:	eb000587 	bl	800244d4 <log_write>
80022eb4:	e51b000c 	ldr	r0, [fp, #-12]
80022eb8:	ebfff73a 	bl	80020ba8 <brelse>
80022ebc:	e51b3008 	ldr	r3, [fp, #-8]
80022ec0:	e1a01003 	mov	r1, r3
80022ec4:	e51b0028 	ldr	r0, [fp, #-40]	; 0xffffffd8
80022ec8:	eb000048 	bl	80022ff0 <iget>
80022ecc:	e1a03000 	mov	r3, r0
80022ed0:	ea00000a 	b	80022f00 <ialloc+0xf0>
80022ed4:	e51b000c 	ldr	r0, [fp, #-12]
80022ed8:	ebfff732 	bl	80020ba8 <brelse>
80022edc:	e51b3008 	ldr	r3, [fp, #-8]
80022ee0:	e2833001 	add	r3, r3, #1
80022ee4:	e50b3008 	str	r3, [fp, #-8]
80022ee8:	e51b2018 	ldr	r2, [fp, #-24]	; 0xffffffe8
80022eec:	e51b3008 	ldr	r3, [fp, #-8]
80022ef0:	e1520003 	cmp	r2, r3
80022ef4:	8affffd3 	bhi	80022e48 <ialloc+0x38>
80022ef8:	e59f000c 	ldr	r0, [pc, #12]	; 80022f0c <ialloc+0xfc>
80022efc:	ebfffb0f 	bl	80021b40 <panic>
80022f00:	e1a00003 	mov	r0, r3
80022f04:	e24bd004 	sub	sp, fp, #4
80022f08:	e8bd8800 	pop	{fp, pc}
80022f0c:	8002a1f8 	.word	0x8002a1f8

80022f10 <iupdate>:
80022f10:	e92d4800 	push	{fp, lr}
80022f14:	e28db004 	add	fp, sp, #4
80022f18:	e24dd010 	sub	sp, sp, #16
80022f1c:	e50b0010 	str	r0, [fp, #-16]
80022f20:	e51b3010 	ldr	r3, [fp, #-16]
80022f24:	e5932000 	ldr	r2, [r3]
80022f28:	e51b3010 	ldr	r3, [fp, #-16]
80022f2c:	e5933004 	ldr	r3, [r3, #4]
80022f30:	e1a031a3 	lsr	r3, r3, #3
80022f34:	e2833002 	add	r3, r3, #2
80022f38:	e1a01003 	mov	r1, r3
80022f3c:	e1a00002 	mov	r0, r2
80022f40:	ebfff6ee 	bl	80020b00 <bread>
80022f44:	e50b0008 	str	r0, [fp, #-8]
80022f48:	e51b3008 	ldr	r3, [fp, #-8]
80022f4c:	e2832018 	add	r2, r3, #24
80022f50:	e51b3010 	ldr	r3, [fp, #-16]
80022f54:	e5933004 	ldr	r3, [r3, #4]
80022f58:	e2033007 	and	r3, r3, #7
80022f5c:	e1a03303 	lsl	r3, r3, #6
80022f60:	e0823003 	add	r3, r2, r3
80022f64:	e50b300c 	str	r3, [fp, #-12]
80022f68:	e51b3010 	ldr	r3, [fp, #-16]
80022f6c:	e1d321f0 	ldrsh	r2, [r3, #16]
80022f70:	e51b300c 	ldr	r3, [fp, #-12]
80022f74:	e1c320b0 	strh	r2, [r3]
80022f78:	e51b3010 	ldr	r3, [fp, #-16]
80022f7c:	e1d321f2 	ldrsh	r2, [r3, #18]
80022f80:	e51b300c 	ldr	r3, [fp, #-12]
80022f84:	e1c320b2 	strh	r2, [r3, #2]
80022f88:	e51b3010 	ldr	r3, [fp, #-16]
80022f8c:	e1d321f4 	ldrsh	r2, [r3, #20]
80022f90:	e51b300c 	ldr	r3, [fp, #-12]
80022f94:	e1c320b4 	strh	r2, [r3, #4]
80022f98:	e51b3010 	ldr	r3, [fp, #-16]
80022f9c:	e1d321f6 	ldrsh	r2, [r3, #22]
80022fa0:	e51b300c 	ldr	r3, [fp, #-12]
80022fa4:	e1c320b6 	strh	r2, [r3, #6]
80022fa8:	e51b3010 	ldr	r3, [fp, #-16]
80022fac:	e5932018 	ldr	r2, [r3, #24]
80022fb0:	e51b300c 	ldr	r3, [fp, #-12]
80022fb4:	e5832008 	str	r2, [r3, #8]
80022fb8:	e51b300c 	ldr	r3, [fp, #-12]
80022fbc:	e283000c 	add	r0, r3, #12
80022fc0:	e51b3010 	ldr	r3, [fp, #-16]
80022fc4:	e283301c 	add	r3, r3, #28
80022fc8:	e3a02034 	mov	r2, #52	; 0x34
80022fcc:	e1a01003 	mov	r1, r3
80022fd0:	ebfff47b 	bl	800201c4 <memmove>
80022fd4:	e51b0008 	ldr	r0, [fp, #-8]
80022fd8:	eb00053d 	bl	800244d4 <log_write>
80022fdc:	e51b0008 	ldr	r0, [fp, #-8]
80022fe0:	ebfff6f0 	bl	80020ba8 <brelse>
80022fe4:	e1a00000 	nop			; (mov r0, r0)
80022fe8:	e24bd004 	sub	sp, fp, #4
80022fec:	e8bd8800 	pop	{fp, pc}

80022ff0 <iget>:
80022ff0:	e92d4800 	push	{fp, lr}
80022ff4:	e28db004 	add	fp, sp, #4
80022ff8:	e24dd010 	sub	sp, sp, #16
80022ffc:	e50b0010 	str	r0, [fp, #-16]
80023000:	e50b1014 	str	r1, [fp, #-20]	; 0xffffffec
80023004:	e59f0114 	ldr	r0, [pc, #276]	; 80023120 <iget+0x130>
80023008:	eb000b7a 	bl	80025df8 <acquire>
8002300c:	e3a03000 	mov	r3, #0
80023010:	e50b300c 	str	r3, [fp, #-12]
80023014:	e59f3108 	ldr	r3, [pc, #264]	; 80023124 <iget+0x134>
80023018:	e50b3008 	str	r3, [fp, #-8]
8002301c:	ea000022 	b	800230ac <iget+0xbc>
80023020:	e51b3008 	ldr	r3, [fp, #-8]
80023024:	e5933008 	ldr	r3, [r3, #8]
80023028:	e3530000 	cmp	r3, #0
8002302c:	da000012 	ble	8002307c <iget+0x8c>
80023030:	e51b3008 	ldr	r3, [fp, #-8]
80023034:	e5933000 	ldr	r3, [r3]
80023038:	e51b2010 	ldr	r2, [fp, #-16]
8002303c:	e1520003 	cmp	r2, r3
80023040:	1a00000d 	bne	8002307c <iget+0x8c>
80023044:	e51b3008 	ldr	r3, [fp, #-8]
80023048:	e5933004 	ldr	r3, [r3, #4]
8002304c:	e51b2014 	ldr	r2, [fp, #-20]	; 0xffffffec
80023050:	e1520003 	cmp	r2, r3
80023054:	1a000008 	bne	8002307c <iget+0x8c>
80023058:	e51b3008 	ldr	r3, [fp, #-8]
8002305c:	e5933008 	ldr	r3, [r3, #8]
80023060:	e2832001 	add	r2, r3, #1
80023064:	e51b3008 	ldr	r3, [fp, #-8]
80023068:	e5832008 	str	r2, [r3, #8]
8002306c:	e59f00ac 	ldr	r0, [pc, #172]	; 80023120 <iget+0x130>
80023070:	eb000b6b 	bl	80025e24 <release>
80023074:	e51b3008 	ldr	r3, [fp, #-8]
80023078:	ea000025 	b	80023114 <iget+0x124>
8002307c:	e51b300c 	ldr	r3, [fp, #-12]
80023080:	e3530000 	cmp	r3, #0
80023084:	1a000005 	bne	800230a0 <iget+0xb0>
80023088:	e51b3008 	ldr	r3, [fp, #-8]
8002308c:	e5933008 	ldr	r3, [r3, #8]
80023090:	e3530000 	cmp	r3, #0
80023094:	1a000001 	bne	800230a0 <iget+0xb0>
80023098:	e51b3008 	ldr	r3, [fp, #-8]
8002309c:	e50b300c 	str	r3, [fp, #-12]
800230a0:	e51b3008 	ldr	r3, [fp, #-8]
800230a4:	e2833050 	add	r3, r3, #80	; 0x50
800230a8:	e50b3008 	str	r3, [fp, #-8]
800230ac:	e51b3008 	ldr	r3, [fp, #-8]
800230b0:	e59f2070 	ldr	r2, [pc, #112]	; 80023128 <iget+0x138>
800230b4:	e1530002 	cmp	r3, r2
800230b8:	3affffd8 	bcc	80023020 <iget+0x30>
800230bc:	e51b300c 	ldr	r3, [fp, #-12]
800230c0:	e3530000 	cmp	r3, #0
800230c4:	1a000001 	bne	800230d0 <iget+0xe0>
800230c8:	e59f005c 	ldr	r0, [pc, #92]	; 8002312c <iget+0x13c>
800230cc:	ebfffa9b 	bl	80021b40 <panic>
800230d0:	e51b300c 	ldr	r3, [fp, #-12]
800230d4:	e50b3008 	str	r3, [fp, #-8]
800230d8:	e51b3008 	ldr	r3, [fp, #-8]
800230dc:	e51b2010 	ldr	r2, [fp, #-16]
800230e0:	e5832000 	str	r2, [r3]
800230e4:	e51b3008 	ldr	r3, [fp, #-8]
800230e8:	e51b2014 	ldr	r2, [fp, #-20]	; 0xffffffec
800230ec:	e5832004 	str	r2, [r3, #4]
800230f0:	e51b3008 	ldr	r3, [fp, #-8]
800230f4:	e3a02001 	mov	r2, #1
800230f8:	e5832008 	str	r2, [r3, #8]
800230fc:	e51b3008 	ldr	r3, [fp, #-8]
80023100:	e3a02000 	mov	r2, #0
80023104:	e583200c 	str	r2, [r3, #12]
80023108:	e59f0010 	ldr	r0, [pc, #16]	; 80023120 <iget+0x130>
8002310c:	eb000b44 	bl	80025e24 <release>
80023110:	e51b3008 	ldr	r3, [fp, #-8]
80023114:	e1a00003 	mov	r0, r3
80023118:	e24bd004 	sub	sp, fp, #4
8002311c:	e8bd8800 	pop	{fp, pc}
80023120:	800ad4e8 	.word	0x800ad4e8
80023124:	800ad51c 	.word	0x800ad51c
80023128:	800ae4bc 	.word	0x800ae4bc
8002312c:	8002a20c 	.word	0x8002a20c

80023130 <idup>:
80023130:	e92d4800 	push	{fp, lr}
80023134:	e28db004 	add	fp, sp, #4
80023138:	e24dd008 	sub	sp, sp, #8
8002313c:	e50b0008 	str	r0, [fp, #-8]
80023140:	e59f002c 	ldr	r0, [pc, #44]	; 80023174 <idup+0x44>
80023144:	eb000b2b 	bl	80025df8 <acquire>
80023148:	e51b3008 	ldr	r3, [fp, #-8]
8002314c:	e5933008 	ldr	r3, [r3, #8]
80023150:	e2832001 	add	r2, r3, #1
80023154:	e51b3008 	ldr	r3, [fp, #-8]
80023158:	e5832008 	str	r2, [r3, #8]
8002315c:	e59f0010 	ldr	r0, [pc, #16]	; 80023174 <idup+0x44>
80023160:	eb000b2f 	bl	80025e24 <release>
80023164:	e51b3008 	ldr	r3, [fp, #-8]
80023168:	e1a00003 	mov	r0, r3
8002316c:	e24bd004 	sub	sp, fp, #4
80023170:	e8bd8800 	pop	{fp, pc}
80023174:	800ad4e8 	.word	0x800ad4e8

80023178 <ilock>:
80023178:	e92d4800 	push	{fp, lr}
8002317c:	e28db004 	add	fp, sp, #4
80023180:	e24dd010 	sub	sp, sp, #16
80023184:	e50b0010 	str	r0, [fp, #-16]
80023188:	e51b3010 	ldr	r3, [fp, #-16]
8002318c:	e3530000 	cmp	r3, #0
80023190:	0a000003 	beq	800231a4 <ilock+0x2c>
80023194:	e51b3010 	ldr	r3, [fp, #-16]
80023198:	e5933008 	ldr	r3, [r3, #8]
8002319c:	e3530000 	cmp	r3, #0
800231a0:	ca000001 	bgt	800231ac <ilock+0x34>
800231a4:	e59f0150 	ldr	r0, [pc, #336]	; 800232fc <ilock+0x184>
800231a8:	ebfffa64 	bl	80021b40 <panic>
800231ac:	e59f014c 	ldr	r0, [pc, #332]	; 80023300 <ilock+0x188>
800231b0:	eb000b10 	bl	80025df8 <acquire>
800231b4:	ea000002 	b	800231c4 <ilock+0x4c>
800231b8:	e59f1140 	ldr	r1, [pc, #320]	; 80023300 <ilock+0x188>
800231bc:	e51b0010 	ldr	r0, [fp, #-16]
800231c0:	eb0009bd 	bl	800258bc <sleep>
800231c4:	e51b3010 	ldr	r3, [fp, #-16]
800231c8:	e593300c 	ldr	r3, [r3, #12]
800231cc:	e2033001 	and	r3, r3, #1
800231d0:	e3530000 	cmp	r3, #0
800231d4:	1afffff7 	bne	800231b8 <ilock+0x40>
800231d8:	e51b3010 	ldr	r3, [fp, #-16]
800231dc:	e593300c 	ldr	r3, [r3, #12]
800231e0:	e3832001 	orr	r2, r3, #1
800231e4:	e51b3010 	ldr	r3, [fp, #-16]
800231e8:	e583200c 	str	r2, [r3, #12]
800231ec:	e59f010c 	ldr	r0, [pc, #268]	; 80023300 <ilock+0x188>
800231f0:	eb000b0b 	bl	80025e24 <release>
800231f4:	e51b3010 	ldr	r3, [fp, #-16]
800231f8:	e593300c 	ldr	r3, [r3, #12]
800231fc:	e2033002 	and	r3, r3, #2
80023200:	e3530000 	cmp	r3, #0
80023204:	1a000039 	bne	800232f0 <ilock+0x178>
80023208:	e51b3010 	ldr	r3, [fp, #-16]
8002320c:	e5932000 	ldr	r2, [r3]
80023210:	e51b3010 	ldr	r3, [fp, #-16]
80023214:	e5933004 	ldr	r3, [r3, #4]
80023218:	e1a031a3 	lsr	r3, r3, #3
8002321c:	e2833002 	add	r3, r3, #2
80023220:	e1a01003 	mov	r1, r3
80023224:	e1a00002 	mov	r0, r2
80023228:	ebfff634 	bl	80020b00 <bread>
8002322c:	e50b0008 	str	r0, [fp, #-8]
80023230:	e51b3008 	ldr	r3, [fp, #-8]
80023234:	e2832018 	add	r2, r3, #24
80023238:	e51b3010 	ldr	r3, [fp, #-16]
8002323c:	e5933004 	ldr	r3, [r3, #4]
80023240:	e2033007 	and	r3, r3, #7
80023244:	e1a03303 	lsl	r3, r3, #6
80023248:	e0823003 	add	r3, r2, r3
8002324c:	e50b300c 	str	r3, [fp, #-12]
80023250:	e51b300c 	ldr	r3, [fp, #-12]
80023254:	e1d320f0 	ldrsh	r2, [r3]
80023258:	e51b3010 	ldr	r3, [fp, #-16]
8002325c:	e1c321b0 	strh	r2, [r3, #16]
80023260:	e51b300c 	ldr	r3, [fp, #-12]
80023264:	e1d320f2 	ldrsh	r2, [r3, #2]
80023268:	e51b3010 	ldr	r3, [fp, #-16]
8002326c:	e1c321b2 	strh	r2, [r3, #18]
80023270:	e51b300c 	ldr	r3, [fp, #-12]
80023274:	e1d320f4 	ldrsh	r2, [r3, #4]
80023278:	e51b3010 	ldr	r3, [fp, #-16]
8002327c:	e1c321b4 	strh	r2, [r3, #20]
80023280:	e51b300c 	ldr	r3, [fp, #-12]
80023284:	e1d320f6 	ldrsh	r2, [r3, #6]
80023288:	e51b3010 	ldr	r3, [fp, #-16]
8002328c:	e1c321b6 	strh	r2, [r3, #22]
80023290:	e51b300c 	ldr	r3, [fp, #-12]
80023294:	e5932008 	ldr	r2, [r3, #8]
80023298:	e51b3010 	ldr	r3, [fp, #-16]
8002329c:	e5832018 	str	r2, [r3, #24]
800232a0:	e51b3010 	ldr	r3, [fp, #-16]
800232a4:	e283001c 	add	r0, r3, #28
800232a8:	e51b300c 	ldr	r3, [fp, #-12]
800232ac:	e283300c 	add	r3, r3, #12
800232b0:	e3a02034 	mov	r2, #52	; 0x34
800232b4:	e1a01003 	mov	r1, r3
800232b8:	ebfff3c1 	bl	800201c4 <memmove>
800232bc:	e51b0008 	ldr	r0, [fp, #-8]
800232c0:	ebfff638 	bl	80020ba8 <brelse>
800232c4:	e51b3010 	ldr	r3, [fp, #-16]
800232c8:	e593300c 	ldr	r3, [r3, #12]
800232cc:	e3832002 	orr	r2, r3, #2
800232d0:	e51b3010 	ldr	r3, [fp, #-16]
800232d4:	e583200c 	str	r2, [r3, #12]
800232d8:	e51b3010 	ldr	r3, [fp, #-16]
800232dc:	e1d331f0 	ldrsh	r3, [r3, #16]
800232e0:	e3530000 	cmp	r3, #0
800232e4:	1a000001 	bne	800232f0 <ilock+0x178>
800232e8:	e59f0014 	ldr	r0, [pc, #20]	; 80023304 <ilock+0x18c>
800232ec:	ebfffa13 	bl	80021b40 <panic>
800232f0:	e1a00000 	nop			; (mov r0, r0)
800232f4:	e24bd004 	sub	sp, fp, #4
800232f8:	e8bd8800 	pop	{fp, pc}
800232fc:	8002a21c 	.word	0x8002a21c
80023300:	800ad4e8 	.word	0x800ad4e8
80023304:	8002a224 	.word	0x8002a224

80023308 <iunlock>:
80023308:	e92d4800 	push	{fp, lr}
8002330c:	e28db004 	add	fp, sp, #4
80023310:	e24dd008 	sub	sp, sp, #8
80023314:	e50b0008 	str	r0, [fp, #-8]
80023318:	e51b3008 	ldr	r3, [fp, #-8]
8002331c:	e3530000 	cmp	r3, #0
80023320:	0a000008 	beq	80023348 <iunlock+0x40>
80023324:	e51b3008 	ldr	r3, [fp, #-8]
80023328:	e593300c 	ldr	r3, [r3, #12]
8002332c:	e2033001 	and	r3, r3, #1
80023330:	e3530000 	cmp	r3, #0
80023334:	0a000003 	beq	80023348 <iunlock+0x40>
80023338:	e51b3008 	ldr	r3, [fp, #-8]
8002333c:	e5933008 	ldr	r3, [r3, #8]
80023340:	e3530000 	cmp	r3, #0
80023344:	ca000001 	bgt	80023350 <iunlock+0x48>
80023348:	e59f0038 	ldr	r0, [pc, #56]	; 80023388 <iunlock+0x80>
8002334c:	ebfff9fb 	bl	80021b40 <panic>
80023350:	e59f0034 	ldr	r0, [pc, #52]	; 8002338c <iunlock+0x84>
80023354:	eb000aa7 	bl	80025df8 <acquire>
80023358:	e51b3008 	ldr	r3, [fp, #-8]
8002335c:	e593300c 	ldr	r3, [r3, #12]
80023360:	e3c32001 	bic	r2, r3, #1
80023364:	e51b3008 	ldr	r3, [fp, #-8]
80023368:	e583200c 	str	r2, [r3, #12]
8002336c:	e51b0008 	ldr	r0, [fp, #-8]
80023370:	eb0009a5 	bl	80025a0c <wakeup>
80023374:	e59f0010 	ldr	r0, [pc, #16]	; 8002338c <iunlock+0x84>
80023378:	eb000aa9 	bl	80025e24 <release>
8002337c:	e1a00000 	nop			; (mov r0, r0)
80023380:	e24bd004 	sub	sp, fp, #4
80023384:	e8bd8800 	pop	{fp, pc}
80023388:	8002a234 	.word	0x8002a234
8002338c:	800ad4e8 	.word	0x800ad4e8

80023390 <iput>:
80023390:	e92d4800 	push	{fp, lr}
80023394:	e28db004 	add	fp, sp, #4
80023398:	e24dd008 	sub	sp, sp, #8
8002339c:	e50b0008 	str	r0, [fp, #-8]
800233a0:	e59f00cc 	ldr	r0, [pc, #204]	; 80023474 <iput+0xe4>
800233a4:	eb000a93 	bl	80025df8 <acquire>
800233a8:	e51b3008 	ldr	r3, [fp, #-8]
800233ac:	e5933008 	ldr	r3, [r3, #8]
800233b0:	e3530001 	cmp	r3, #1
800233b4:	1a000024 	bne	8002344c <iput+0xbc>
800233b8:	e51b3008 	ldr	r3, [fp, #-8]
800233bc:	e593300c 	ldr	r3, [r3, #12]
800233c0:	e2033002 	and	r3, r3, #2
800233c4:	e3530000 	cmp	r3, #0
800233c8:	0a00001f 	beq	8002344c <iput+0xbc>
800233cc:	e51b3008 	ldr	r3, [fp, #-8]
800233d0:	e1d331f6 	ldrsh	r3, [r3, #22]
800233d4:	e3530000 	cmp	r3, #0
800233d8:	1a00001b 	bne	8002344c <iput+0xbc>
800233dc:	e51b3008 	ldr	r3, [fp, #-8]
800233e0:	e593300c 	ldr	r3, [r3, #12]
800233e4:	e2033001 	and	r3, r3, #1
800233e8:	e3530000 	cmp	r3, #0
800233ec:	0a000001 	beq	800233f8 <iput+0x68>
800233f0:	e59f0080 	ldr	r0, [pc, #128]	; 80023478 <iput+0xe8>
800233f4:	ebfff9d1 	bl	80021b40 <panic>
800233f8:	e51b3008 	ldr	r3, [fp, #-8]
800233fc:	e593300c 	ldr	r3, [r3, #12]
80023400:	e3832001 	orr	r2, r3, #1
80023404:	e51b3008 	ldr	r3, [fp, #-8]
80023408:	e583200c 	str	r2, [r3, #12]
8002340c:	e59f0060 	ldr	r0, [pc, #96]	; 80023474 <iput+0xe4>
80023410:	eb000a83 	bl	80025e24 <release>
80023414:	e51b0008 	ldr	r0, [fp, #-8]
80023418:	eb00007f 	bl	8002361c <itrunc>
8002341c:	e51b3008 	ldr	r3, [fp, #-8]
80023420:	e3a02000 	mov	r2, #0
80023424:	e1c321b0 	strh	r2, [r3, #16]
80023428:	e51b0008 	ldr	r0, [fp, #-8]
8002342c:	ebfffeb7 	bl	80022f10 <iupdate>
80023430:	e59f003c 	ldr	r0, [pc, #60]	; 80023474 <iput+0xe4>
80023434:	eb000a6f 	bl	80025df8 <acquire>
80023438:	e51b3008 	ldr	r3, [fp, #-8]
8002343c:	e3a02000 	mov	r2, #0
80023440:	e583200c 	str	r2, [r3, #12]
80023444:	e51b0008 	ldr	r0, [fp, #-8]
80023448:	eb00096f 	bl	80025a0c <wakeup>
8002344c:	e51b3008 	ldr	r3, [fp, #-8]
80023450:	e5933008 	ldr	r3, [r3, #8]
80023454:	e2432001 	sub	r2, r3, #1
80023458:	e51b3008 	ldr	r3, [fp, #-8]
8002345c:	e5832008 	str	r2, [r3, #8]
80023460:	e59f000c 	ldr	r0, [pc, #12]	; 80023474 <iput+0xe4>
80023464:	eb000a6e 	bl	80025e24 <release>
80023468:	e1a00000 	nop			; (mov r0, r0)
8002346c:	e24bd004 	sub	sp, fp, #4
80023470:	e8bd8800 	pop	{fp, pc}
80023474:	800ad4e8 	.word	0x800ad4e8
80023478:	8002a23c 	.word	0x8002a23c

8002347c <iunlockput>:
8002347c:	e92d4800 	push	{fp, lr}
80023480:	e28db004 	add	fp, sp, #4
80023484:	e24dd008 	sub	sp, sp, #8
80023488:	e50b0008 	str	r0, [fp, #-8]
8002348c:	e51b0008 	ldr	r0, [fp, #-8]
80023490:	ebffff9c 	bl	80023308 <iunlock>
80023494:	e51b0008 	ldr	r0, [fp, #-8]
80023498:	ebffffbc 	bl	80023390 <iput>
8002349c:	e1a00000 	nop			; (mov r0, r0)
800234a0:	e24bd004 	sub	sp, fp, #4
800234a4:	e8bd8800 	pop	{fp, pc}

800234a8 <bmap>:
800234a8:	e92d4800 	push	{fp, lr}
800234ac:	e28db004 	add	fp, sp, #4
800234b0:	e24dd018 	sub	sp, sp, #24
800234b4:	e50b0018 	str	r0, [fp, #-24]	; 0xffffffe8
800234b8:	e50b101c 	str	r1, [fp, #-28]	; 0xffffffe4
800234bc:	e51b301c 	ldr	r3, [fp, #-28]	; 0xffffffe4
800234c0:	e353000b 	cmp	r3, #11
800234c4:	8a000017 	bhi	80023528 <bmap+0x80>
800234c8:	e51b2018 	ldr	r2, [fp, #-24]	; 0xffffffe8
800234cc:	e51b301c 	ldr	r3, [fp, #-28]	; 0xffffffe4
800234d0:	e2833006 	add	r3, r3, #6
800234d4:	e1a03103 	lsl	r3, r3, #2
800234d8:	e0823003 	add	r3, r2, r3
800234dc:	e5933004 	ldr	r3, [r3, #4]
800234e0:	e50b3008 	str	r3, [fp, #-8]
800234e4:	e51b3008 	ldr	r3, [fp, #-8]
800234e8:	e3530000 	cmp	r3, #0
800234ec:	1a00000b 	bne	80023520 <bmap+0x78>
800234f0:	e51b3018 	ldr	r3, [fp, #-24]	; 0xffffffe8
800234f4:	e5933000 	ldr	r3, [r3]
800234f8:	e1a00003 	mov	r0, r3
800234fc:	ebfffd78 	bl	80022ae4 <balloc>
80023500:	e50b0008 	str	r0, [fp, #-8]
80023504:	e51b2018 	ldr	r2, [fp, #-24]	; 0xffffffe8
80023508:	e51b301c 	ldr	r3, [fp, #-28]	; 0xffffffe4
8002350c:	e2833006 	add	r3, r3, #6
80023510:	e1a03103 	lsl	r3, r3, #2
80023514:	e0823003 	add	r3, r2, r3
80023518:	e51b2008 	ldr	r2, [fp, #-8]
8002351c:	e5832004 	str	r2, [r3, #4]
80023520:	e51b3008 	ldr	r3, [fp, #-8]
80023524:	ea000038 	b	8002360c <bmap+0x164>
80023528:	e51b301c 	ldr	r3, [fp, #-28]	; 0xffffffe4
8002352c:	e243300c 	sub	r3, r3, #12
80023530:	e50b301c 	str	r3, [fp, #-28]	; 0xffffffe4
80023534:	e51b301c 	ldr	r3, [fp, #-28]	; 0xffffffe4
80023538:	e353007f 	cmp	r3, #127	; 0x7f
8002353c:	8a000030 	bhi	80023604 <bmap+0x15c>
80023540:	e51b3018 	ldr	r3, [fp, #-24]	; 0xffffffe8
80023544:	e593304c 	ldr	r3, [r3, #76]	; 0x4c
80023548:	e50b3008 	str	r3, [fp, #-8]
8002354c:	e51b3008 	ldr	r3, [fp, #-8]
80023550:	e3530000 	cmp	r3, #0
80023554:	1a000007 	bne	80023578 <bmap+0xd0>
80023558:	e51b3018 	ldr	r3, [fp, #-24]	; 0xffffffe8
8002355c:	e5933000 	ldr	r3, [r3]
80023560:	e1a00003 	mov	r0, r3
80023564:	ebfffd5e 	bl	80022ae4 <balloc>
80023568:	e50b0008 	str	r0, [fp, #-8]
8002356c:	e51b3018 	ldr	r3, [fp, #-24]	; 0xffffffe8
80023570:	e51b2008 	ldr	r2, [fp, #-8]
80023574:	e583204c 	str	r2, [r3, #76]	; 0x4c
80023578:	e51b3018 	ldr	r3, [fp, #-24]	; 0xffffffe8
8002357c:	e5933000 	ldr	r3, [r3]
80023580:	e51b1008 	ldr	r1, [fp, #-8]
80023584:	e1a00003 	mov	r0, r3
80023588:	ebfff55c 	bl	80020b00 <bread>
8002358c:	e50b000c 	str	r0, [fp, #-12]
80023590:	e51b300c 	ldr	r3, [fp, #-12]
80023594:	e2833018 	add	r3, r3, #24
80023598:	e50b3010 	str	r3, [fp, #-16]
8002359c:	e51b301c 	ldr	r3, [fp, #-28]	; 0xffffffe4
800235a0:	e1a03103 	lsl	r3, r3, #2
800235a4:	e51b2010 	ldr	r2, [fp, #-16]
800235a8:	e0823003 	add	r3, r2, r3
800235ac:	e5933000 	ldr	r3, [r3]
800235b0:	e50b3008 	str	r3, [fp, #-8]
800235b4:	e51b3008 	ldr	r3, [fp, #-8]
800235b8:	e3530000 	cmp	r3, #0
800235bc:	1a00000c 	bne	800235f4 <bmap+0x14c>
800235c0:	e51b3018 	ldr	r3, [fp, #-24]	; 0xffffffe8
800235c4:	e5933000 	ldr	r3, [r3]
800235c8:	e1a00003 	mov	r0, r3
800235cc:	ebfffd44 	bl	80022ae4 <balloc>
800235d0:	e50b0008 	str	r0, [fp, #-8]
800235d4:	e51b301c 	ldr	r3, [fp, #-28]	; 0xffffffe4
800235d8:	e1a03103 	lsl	r3, r3, #2
800235dc:	e51b2010 	ldr	r2, [fp, #-16]
800235e0:	e0823003 	add	r3, r2, r3
800235e4:	e51b2008 	ldr	r2, [fp, #-8]
800235e8:	e5832000 	str	r2, [r3]
800235ec:	e51b000c 	ldr	r0, [fp, #-12]
800235f0:	eb0003b7 	bl	800244d4 <log_write>
800235f4:	e51b000c 	ldr	r0, [fp, #-12]
800235f8:	ebfff56a 	bl	80020ba8 <brelse>
800235fc:	e51b3008 	ldr	r3, [fp, #-8]
80023600:	ea000001 	b	8002360c <bmap+0x164>
80023604:	e59f000c 	ldr	r0, [pc, #12]	; 80023618 <bmap+0x170>
80023608:	ebfff94c 	bl	80021b40 <panic>
8002360c:	e1a00003 	mov	r0, r3
80023610:	e24bd004 	sub	sp, fp, #4
80023614:	e8bd8800 	pop	{fp, pc}
80023618:	8002a248 	.word	0x8002a248

8002361c <itrunc>:
8002361c:	e92d4800 	push	{fp, lr}
80023620:	e28db004 	add	fp, sp, #4
80023624:	e24dd018 	sub	sp, sp, #24
80023628:	e50b0018 	str	r0, [fp, #-24]	; 0xffffffe8
8002362c:	e3a03000 	mov	r3, #0
80023630:	e50b3008 	str	r3, [fp, #-8]
80023634:	ea00001c 	b	800236ac <itrunc+0x90>
80023638:	e51b2018 	ldr	r2, [fp, #-24]	; 0xffffffe8
8002363c:	e51b3008 	ldr	r3, [fp, #-8]
80023640:	e2833006 	add	r3, r3, #6
80023644:	e1a03103 	lsl	r3, r3, #2
80023648:	e0823003 	add	r3, r2, r3
8002364c:	e5933004 	ldr	r3, [r3, #4]
80023650:	e3530000 	cmp	r3, #0
80023654:	0a000011 	beq	800236a0 <itrunc+0x84>
80023658:	e51b3018 	ldr	r3, [fp, #-24]	; 0xffffffe8
8002365c:	e5933000 	ldr	r3, [r3]
80023660:	e1a00003 	mov	r0, r3
80023664:	e51b2018 	ldr	r2, [fp, #-24]	; 0xffffffe8
80023668:	e51b3008 	ldr	r3, [fp, #-8]
8002366c:	e2833006 	add	r3, r3, #6
80023670:	e1a03103 	lsl	r3, r3, #2
80023674:	e0823003 	add	r3, r2, r3
80023678:	e5933004 	ldr	r3, [r3, #4]
8002367c:	e1a01003 	mov	r1, r3
80023680:	ebfffd8c 	bl	80022cb8 <bfree>
80023684:	e51b2018 	ldr	r2, [fp, #-24]	; 0xffffffe8
80023688:	e51b3008 	ldr	r3, [fp, #-8]
8002368c:	e2833006 	add	r3, r3, #6
80023690:	e1a03103 	lsl	r3, r3, #2
80023694:	e0823003 	add	r3, r2, r3
80023698:	e3a02000 	mov	r2, #0
8002369c:	e5832004 	str	r2, [r3, #4]
800236a0:	e51b3008 	ldr	r3, [fp, #-8]
800236a4:	e2833001 	add	r3, r3, #1
800236a8:	e50b3008 	str	r3, [fp, #-8]
800236ac:	e51b3008 	ldr	r3, [fp, #-8]
800236b0:	e353000b 	cmp	r3, #11
800236b4:	daffffdf 	ble	80023638 <itrunc+0x1c>
800236b8:	e51b3018 	ldr	r3, [fp, #-24]	; 0xffffffe8
800236bc:	e593304c 	ldr	r3, [r3, #76]	; 0x4c
800236c0:	e3530000 	cmp	r3, #0
800236c4:	0a000031 	beq	80023790 <itrunc+0x174>
800236c8:	e51b3018 	ldr	r3, [fp, #-24]	; 0xffffffe8
800236cc:	e5932000 	ldr	r2, [r3]
800236d0:	e51b3018 	ldr	r3, [fp, #-24]	; 0xffffffe8
800236d4:	e593304c 	ldr	r3, [r3, #76]	; 0x4c
800236d8:	e1a01003 	mov	r1, r3
800236dc:	e1a00002 	mov	r0, r2
800236e0:	ebfff506 	bl	80020b00 <bread>
800236e4:	e50b0010 	str	r0, [fp, #-16]
800236e8:	e51b3010 	ldr	r3, [fp, #-16]
800236ec:	e2833018 	add	r3, r3, #24
800236f0:	e50b3014 	str	r3, [fp, #-20]	; 0xffffffec
800236f4:	e3a03000 	mov	r3, #0
800236f8:	e50b300c 	str	r3, [fp, #-12]
800236fc:	ea000013 	b	80023750 <itrunc+0x134>
80023700:	e51b300c 	ldr	r3, [fp, #-12]
80023704:	e1a03103 	lsl	r3, r3, #2
80023708:	e51b2014 	ldr	r2, [fp, #-20]	; 0xffffffec
8002370c:	e0823003 	add	r3, r2, r3
80023710:	e5933000 	ldr	r3, [r3]
80023714:	e3530000 	cmp	r3, #0
80023718:	0a000009 	beq	80023744 <itrunc+0x128>
8002371c:	e51b3018 	ldr	r3, [fp, #-24]	; 0xffffffe8
80023720:	e5933000 	ldr	r3, [r3]
80023724:	e1a00003 	mov	r0, r3
80023728:	e51b300c 	ldr	r3, [fp, #-12]
8002372c:	e1a03103 	lsl	r3, r3, #2
80023730:	e51b2014 	ldr	r2, [fp, #-20]	; 0xffffffec
80023734:	e0823003 	add	r3, r2, r3
80023738:	e5933000 	ldr	r3, [r3]
8002373c:	e1a01003 	mov	r1, r3
80023740:	ebfffd5c 	bl	80022cb8 <bfree>
80023744:	e51b300c 	ldr	r3, [fp, #-12]
80023748:	e2833001 	add	r3, r3, #1
8002374c:	e50b300c 	str	r3, [fp, #-12]
80023750:	e51b300c 	ldr	r3, [fp, #-12]
80023754:	e353007f 	cmp	r3, #127	; 0x7f
80023758:	9affffe8 	bls	80023700 <itrunc+0xe4>
8002375c:	e51b0010 	ldr	r0, [fp, #-16]
80023760:	ebfff510 	bl	80020ba8 <brelse>
80023764:	e51b3018 	ldr	r3, [fp, #-24]	; 0xffffffe8
80023768:	e5933000 	ldr	r3, [r3]
8002376c:	e1a02003 	mov	r2, r3
80023770:	e51b3018 	ldr	r3, [fp, #-24]	; 0xffffffe8
80023774:	e593304c 	ldr	r3, [r3, #76]	; 0x4c
80023778:	e1a01003 	mov	r1, r3
8002377c:	e1a00002 	mov	r0, r2
80023780:	ebfffd4c 	bl	80022cb8 <bfree>
80023784:	e51b3018 	ldr	r3, [fp, #-24]	; 0xffffffe8
80023788:	e3a02000 	mov	r2, #0
8002378c:	e583204c 	str	r2, [r3, #76]	; 0x4c
80023790:	e51b3018 	ldr	r3, [fp, #-24]	; 0xffffffe8
80023794:	e3a02000 	mov	r2, #0
80023798:	e5832018 	str	r2, [r3, #24]
8002379c:	e51b0018 	ldr	r0, [fp, #-24]	; 0xffffffe8
800237a0:	ebfffdda 	bl	80022f10 <iupdate>
800237a4:	e1a00000 	nop			; (mov r0, r0)
800237a8:	e24bd004 	sub	sp, fp, #4
800237ac:	e8bd8800 	pop	{fp, pc}

800237b0 <stati>:
800237b0:	e52db004 	push	{fp}		; (str fp, [sp, #-4]!)
800237b4:	e28db000 	add	fp, sp, #0
800237b8:	e24dd00c 	sub	sp, sp, #12
800237bc:	e50b0008 	str	r0, [fp, #-8]
800237c0:	e50b100c 	str	r1, [fp, #-12]
800237c4:	e51b3008 	ldr	r3, [fp, #-8]
800237c8:	e5933000 	ldr	r3, [r3]
800237cc:	e1a02003 	mov	r2, r3
800237d0:	e51b300c 	ldr	r3, [fp, #-12]
800237d4:	e5832004 	str	r2, [r3, #4]
800237d8:	e51b3008 	ldr	r3, [fp, #-8]
800237dc:	e5932004 	ldr	r2, [r3, #4]
800237e0:	e51b300c 	ldr	r3, [fp, #-12]
800237e4:	e5832008 	str	r2, [r3, #8]
800237e8:	e51b3008 	ldr	r3, [fp, #-8]
800237ec:	e1d321f0 	ldrsh	r2, [r3, #16]
800237f0:	e51b300c 	ldr	r3, [fp, #-12]
800237f4:	e1c320b0 	strh	r2, [r3]
800237f8:	e51b3008 	ldr	r3, [fp, #-8]
800237fc:	e1d321f6 	ldrsh	r2, [r3, #22]
80023800:	e51b300c 	ldr	r3, [fp, #-12]
80023804:	e1c320bc 	strh	r2, [r3, #12]
80023808:	e51b3008 	ldr	r3, [fp, #-8]
8002380c:	e5932018 	ldr	r2, [r3, #24]
80023810:	e51b300c 	ldr	r3, [fp, #-12]
80023814:	e5832010 	str	r2, [r3, #16]
80023818:	e1a00000 	nop			; (mov r0, r0)
8002381c:	e28bd000 	add	sp, fp, #0
80023820:	e49db004 	pop	{fp}		; (ldr fp, [sp], #4)
80023824:	e12fff1e 	bx	lr

80023828 <readi>:
80023828:	e92d4810 	push	{r4, fp, lr}
8002382c:	e28db008 	add	fp, sp, #8
80023830:	e24dd024 	sub	sp, sp, #36	; 0x24
80023834:	e50b0020 	str	r0, [fp, #-32]	; 0xffffffe0
80023838:	e50b1024 	str	r1, [fp, #-36]	; 0xffffffdc
8002383c:	e50b2028 	str	r2, [fp, #-40]	; 0xffffffd8
80023840:	e50b302c 	str	r3, [fp, #-44]	; 0xffffffd4
80023844:	e51b3020 	ldr	r3, [fp, #-32]	; 0xffffffe0
80023848:	e1d331f0 	ldrsh	r3, [r3, #16]
8002384c:	e3530003 	cmp	r3, #3
80023850:	1a00001b 	bne	800238c4 <readi+0x9c>
80023854:	e51b3020 	ldr	r3, [fp, #-32]	; 0xffffffe0
80023858:	e1d331f2 	ldrsh	r3, [r3, #18]
8002385c:	e3530000 	cmp	r3, #0
80023860:	ba00000a 	blt	80023890 <readi+0x68>
80023864:	e51b3020 	ldr	r3, [fp, #-32]	; 0xffffffe0
80023868:	e1d331f2 	ldrsh	r3, [r3, #18]
8002386c:	e3530009 	cmp	r3, #9
80023870:	ca000006 	bgt	80023890 <readi+0x68>
80023874:	e51b3020 	ldr	r3, [fp, #-32]	; 0xffffffe0
80023878:	e1d331f2 	ldrsh	r3, [r3, #18]
8002387c:	e1a02003 	mov	r2, r3
80023880:	e59f3188 	ldr	r3, [pc, #392]	; 80023a10 <readi+0x1e8>
80023884:	e7933182 	ldr	r3, [r3, r2, lsl #3]
80023888:	e3530000 	cmp	r3, #0
8002388c:	1a000001 	bne	80023898 <readi+0x70>
80023890:	e3e03000 	mvn	r3, #0
80023894:	ea00005a 	b	80023a04 <readi+0x1dc>
80023898:	e51b3020 	ldr	r3, [fp, #-32]	; 0xffffffe0
8002389c:	e1d331f2 	ldrsh	r3, [r3, #18]
800238a0:	e1a02003 	mov	r2, r3
800238a4:	e59f3164 	ldr	r3, [pc, #356]	; 80023a10 <readi+0x1e8>
800238a8:	e7933182 	ldr	r3, [r3, r2, lsl #3]
800238ac:	e51b202c 	ldr	r2, [fp, #-44]	; 0xffffffd4
800238b0:	e51b1024 	ldr	r1, [fp, #-36]	; 0xffffffdc
800238b4:	e51b0020 	ldr	r0, [fp, #-32]	; 0xffffffe0
800238b8:	e12fff33 	blx	r3
800238bc:	e1a03000 	mov	r3, r0
800238c0:	ea00004f 	b	80023a04 <readi+0x1dc>
800238c4:	e51b3020 	ldr	r3, [fp, #-32]	; 0xffffffe0
800238c8:	e5933018 	ldr	r3, [r3, #24]
800238cc:	e51b2028 	ldr	r2, [fp, #-40]	; 0xffffffd8
800238d0:	e1520003 	cmp	r2, r3
800238d4:	8a000005 	bhi	800238f0 <readi+0xc8>
800238d8:	e51b2028 	ldr	r2, [fp, #-40]	; 0xffffffd8
800238dc:	e51b302c 	ldr	r3, [fp, #-44]	; 0xffffffd4
800238e0:	e0823003 	add	r3, r2, r3
800238e4:	e51b2028 	ldr	r2, [fp, #-40]	; 0xffffffd8
800238e8:	e1520003 	cmp	r2, r3
800238ec:	9a000001 	bls	800238f8 <readi+0xd0>
800238f0:	e3e03000 	mvn	r3, #0
800238f4:	ea000042 	b	80023a04 <readi+0x1dc>
800238f8:	e51b2028 	ldr	r2, [fp, #-40]	; 0xffffffd8
800238fc:	e51b302c 	ldr	r3, [fp, #-44]	; 0xffffffd4
80023900:	e0822003 	add	r2, r2, r3
80023904:	e51b3020 	ldr	r3, [fp, #-32]	; 0xffffffe0
80023908:	e5933018 	ldr	r3, [r3, #24]
8002390c:	e1520003 	cmp	r2, r3
80023910:	9a000004 	bls	80023928 <readi+0x100>
80023914:	e51b3020 	ldr	r3, [fp, #-32]	; 0xffffffe0
80023918:	e5932018 	ldr	r2, [r3, #24]
8002391c:	e51b3028 	ldr	r3, [fp, #-40]	; 0xffffffd8
80023920:	e0423003 	sub	r3, r2, r3
80023924:	e50b302c 	str	r3, [fp, #-44]	; 0xffffffd4
80023928:	e3a03000 	mov	r3, #0
8002392c:	e50b3010 	str	r3, [fp, #-16]
80023930:	ea00002e 	b	800239f0 <readi+0x1c8>
80023934:	e51b3020 	ldr	r3, [fp, #-32]	; 0xffffffe0
80023938:	e5934000 	ldr	r4, [r3]
8002393c:	e51b3028 	ldr	r3, [fp, #-40]	; 0xffffffd8
80023940:	e1a034a3 	lsr	r3, r3, #9
80023944:	e1a01003 	mov	r1, r3
80023948:	e51b0020 	ldr	r0, [fp, #-32]	; 0xffffffe0
8002394c:	ebfffed5 	bl	800234a8 <bmap>
80023950:	e1a03000 	mov	r3, r0
80023954:	e1a01003 	mov	r1, r3
80023958:	e1a00004 	mov	r0, r4
8002395c:	ebfff467 	bl	80020b00 <bread>
80023960:	e50b0014 	str	r0, [fp, #-20]	; 0xffffffec
80023964:	e51b3028 	ldr	r3, [fp, #-40]	; 0xffffffd8
80023968:	e1a03b83 	lsl	r3, r3, #23
8002396c:	e1a03ba3 	lsr	r3, r3, #23
80023970:	e2632c02 	rsb	r2, r3, #512	; 0x200
80023974:	e51b102c 	ldr	r1, [fp, #-44]	; 0xffffffd4
80023978:	e51b3010 	ldr	r3, [fp, #-16]
8002397c:	e0413003 	sub	r3, r1, r3
80023980:	e1520003 	cmp	r2, r3
80023984:	31a03002 	movcc	r3, r2
80023988:	21a03003 	movcs	r3, r3
8002398c:	e50b3018 	str	r3, [fp, #-24]	; 0xffffffe8
80023990:	e51b3014 	ldr	r3, [fp, #-20]	; 0xffffffec
80023994:	e2832018 	add	r2, r3, #24
80023998:	e51b3028 	ldr	r3, [fp, #-40]	; 0xffffffd8
8002399c:	e1a03b83 	lsl	r3, r3, #23
800239a0:	e1a03ba3 	lsr	r3, r3, #23
800239a4:	e0823003 	add	r3, r2, r3
800239a8:	e51b2018 	ldr	r2, [fp, #-24]	; 0xffffffe8
800239ac:	e1a01003 	mov	r1, r3
800239b0:	e51b0024 	ldr	r0, [fp, #-36]	; 0xffffffdc
800239b4:	ebfff202 	bl	800201c4 <memmove>
800239b8:	e51b0014 	ldr	r0, [fp, #-20]	; 0xffffffec
800239bc:	ebfff479 	bl	80020ba8 <brelse>
800239c0:	e51b2010 	ldr	r2, [fp, #-16]
800239c4:	e51b3018 	ldr	r3, [fp, #-24]	; 0xffffffe8
800239c8:	e0823003 	add	r3, r2, r3
800239cc:	e50b3010 	str	r3, [fp, #-16]
800239d0:	e51b2028 	ldr	r2, [fp, #-40]	; 0xffffffd8
800239d4:	e51b3018 	ldr	r3, [fp, #-24]	; 0xffffffe8
800239d8:	e0823003 	add	r3, r2, r3
800239dc:	e50b3028 	str	r3, [fp, #-40]	; 0xffffffd8
800239e0:	e51b2024 	ldr	r2, [fp, #-36]	; 0xffffffdc
800239e4:	e51b3018 	ldr	r3, [fp, #-24]	; 0xffffffe8
800239e8:	e0823003 	add	r3, r2, r3
800239ec:	e50b3024 	str	r3, [fp, #-36]	; 0xffffffdc
800239f0:	e51b2010 	ldr	r2, [fp, #-16]
800239f4:	e51b302c 	ldr	r3, [fp, #-44]	; 0xffffffd4
800239f8:	e1520003 	cmp	r2, r3
800239fc:	3affffcc 	bcc	80023934 <readi+0x10c>
80023a00:	e51b302c 	ldr	r3, [fp, #-44]	; 0xffffffd4
80023a04:	e1a00003 	mov	r0, r3
80023a08:	e24bd008 	sub	sp, fp, #8
80023a0c:	e8bd8810 	pop	{r4, fp, pc}
80023a10:	800ad498 	.word	0x800ad498

80023a14 <writei>:
80023a14:	e92d4810 	push	{r4, fp, lr}
80023a18:	e28db008 	add	fp, sp, #8
80023a1c:	e24dd024 	sub	sp, sp, #36	; 0x24
80023a20:	e50b0020 	str	r0, [fp, #-32]	; 0xffffffe0
80023a24:	e50b1024 	str	r1, [fp, #-36]	; 0xffffffdc
80023a28:	e50b2028 	str	r2, [fp, #-40]	; 0xffffffd8
80023a2c:	e50b302c 	str	r3, [fp, #-44]	; 0xffffffd4
80023a30:	e51b3020 	ldr	r3, [fp, #-32]	; 0xffffffe0
80023a34:	e1d331f0 	ldrsh	r3, [r3, #16]
80023a38:	e3530003 	cmp	r3, #3
80023a3c:	1a00001d 	bne	80023ab8 <writei+0xa4>
80023a40:	e51b3020 	ldr	r3, [fp, #-32]	; 0xffffffe0
80023a44:	e1d331f2 	ldrsh	r3, [r3, #18]
80023a48:	e3530000 	cmp	r3, #0
80023a4c:	ba00000b 	blt	80023a80 <writei+0x6c>
80023a50:	e51b3020 	ldr	r3, [fp, #-32]	; 0xffffffe0
80023a54:	e1d331f2 	ldrsh	r3, [r3, #18]
80023a58:	e3530009 	cmp	r3, #9
80023a5c:	ca000007 	bgt	80023a80 <writei+0x6c>
80023a60:	e51b3020 	ldr	r3, [fp, #-32]	; 0xffffffe0
80023a64:	e1d331f2 	ldrsh	r3, [r3, #18]
80023a68:	e59f21bc 	ldr	r2, [pc, #444]	; 80023c2c <writei+0x218>
80023a6c:	e1a03183 	lsl	r3, r3, #3
80023a70:	e0823003 	add	r3, r2, r3
80023a74:	e5933004 	ldr	r3, [r3, #4]
80023a78:	e3530000 	cmp	r3, #0
80023a7c:	1a000001 	bne	80023a88 <writei+0x74>
80023a80:	e3e03000 	mvn	r3, #0
80023a84:	ea000065 	b	80023c20 <writei+0x20c>
80023a88:	e51b3020 	ldr	r3, [fp, #-32]	; 0xffffffe0
80023a8c:	e1d331f2 	ldrsh	r3, [r3, #18]
80023a90:	e59f2194 	ldr	r2, [pc, #404]	; 80023c2c <writei+0x218>
80023a94:	e1a03183 	lsl	r3, r3, #3
80023a98:	e0823003 	add	r3, r2, r3
80023a9c:	e5933004 	ldr	r3, [r3, #4]
80023aa0:	e51b202c 	ldr	r2, [fp, #-44]	; 0xffffffd4
80023aa4:	e51b1024 	ldr	r1, [fp, #-36]	; 0xffffffdc
80023aa8:	e51b0020 	ldr	r0, [fp, #-32]	; 0xffffffe0
80023aac:	e12fff33 	blx	r3
80023ab0:	e1a03000 	mov	r3, r0
80023ab4:	ea000059 	b	80023c20 <writei+0x20c>
80023ab8:	e51b3020 	ldr	r3, [fp, #-32]	; 0xffffffe0
80023abc:	e5933018 	ldr	r3, [r3, #24]
80023ac0:	e51b2028 	ldr	r2, [fp, #-40]	; 0xffffffd8
80023ac4:	e1520003 	cmp	r2, r3
80023ac8:	8a000005 	bhi	80023ae4 <writei+0xd0>
80023acc:	e51b2028 	ldr	r2, [fp, #-40]	; 0xffffffd8
80023ad0:	e51b302c 	ldr	r3, [fp, #-44]	; 0xffffffd4
80023ad4:	e0823003 	add	r3, r2, r3
80023ad8:	e51b2028 	ldr	r2, [fp, #-40]	; 0xffffffd8
80023adc:	e1520003 	cmp	r2, r3
80023ae0:	9a000001 	bls	80023aec <writei+0xd8>
80023ae4:	e3e03000 	mvn	r3, #0
80023ae8:	ea00004c 	b	80023c20 <writei+0x20c>
80023aec:	e51b2028 	ldr	r2, [fp, #-40]	; 0xffffffd8
80023af0:	e51b302c 	ldr	r3, [fp, #-44]	; 0xffffffd4
80023af4:	e0823003 	add	r3, r2, r3
80023af8:	e3530b46 	cmp	r3, #71680	; 0x11800
80023afc:	9a000001 	bls	80023b08 <writei+0xf4>
80023b00:	e3e03000 	mvn	r3, #0
80023b04:	ea000045 	b	80023c20 <writei+0x20c>
80023b08:	e3a03000 	mov	r3, #0
80023b0c:	e50b3010 	str	r3, [fp, #-16]
80023b10:	ea000030 	b	80023bd8 <writei+0x1c4>
80023b14:	e51b3020 	ldr	r3, [fp, #-32]	; 0xffffffe0
80023b18:	e5934000 	ldr	r4, [r3]
80023b1c:	e51b3028 	ldr	r3, [fp, #-40]	; 0xffffffd8
80023b20:	e1a034a3 	lsr	r3, r3, #9
80023b24:	e1a01003 	mov	r1, r3
80023b28:	e51b0020 	ldr	r0, [fp, #-32]	; 0xffffffe0
80023b2c:	ebfffe5d 	bl	800234a8 <bmap>
80023b30:	e1a03000 	mov	r3, r0
80023b34:	e1a01003 	mov	r1, r3
80023b38:	e1a00004 	mov	r0, r4
80023b3c:	ebfff3ef 	bl	80020b00 <bread>
80023b40:	e50b0014 	str	r0, [fp, #-20]	; 0xffffffec
80023b44:	e51b3028 	ldr	r3, [fp, #-40]	; 0xffffffd8
80023b48:	e1a03b83 	lsl	r3, r3, #23
80023b4c:	e1a03ba3 	lsr	r3, r3, #23
80023b50:	e2632c02 	rsb	r2, r3, #512	; 0x200
80023b54:	e51b102c 	ldr	r1, [fp, #-44]	; 0xffffffd4
80023b58:	e51b3010 	ldr	r3, [fp, #-16]
80023b5c:	e0413003 	sub	r3, r1, r3
80023b60:	e1520003 	cmp	r2, r3
80023b64:	31a03002 	movcc	r3, r2
80023b68:	21a03003 	movcs	r3, r3
80023b6c:	e50b3018 	str	r3, [fp, #-24]	; 0xffffffe8
80023b70:	e51b3014 	ldr	r3, [fp, #-20]	; 0xffffffec
80023b74:	e2832018 	add	r2, r3, #24
80023b78:	e51b3028 	ldr	r3, [fp, #-40]	; 0xffffffd8
80023b7c:	e1a03b83 	lsl	r3, r3, #23
80023b80:	e1a03ba3 	lsr	r3, r3, #23
80023b84:	e0823003 	add	r3, r2, r3
80023b88:	e51b2018 	ldr	r2, [fp, #-24]	; 0xffffffe8
80023b8c:	e51b1024 	ldr	r1, [fp, #-36]	; 0xffffffdc
80023b90:	e1a00003 	mov	r0, r3
80023b94:	ebfff18a 	bl	800201c4 <memmove>
80023b98:	e51b0014 	ldr	r0, [fp, #-20]	; 0xffffffec
80023b9c:	eb00024c 	bl	800244d4 <log_write>
80023ba0:	e51b0014 	ldr	r0, [fp, #-20]	; 0xffffffec
80023ba4:	ebfff3ff 	bl	80020ba8 <brelse>
80023ba8:	e51b2010 	ldr	r2, [fp, #-16]
80023bac:	e51b3018 	ldr	r3, [fp, #-24]	; 0xffffffe8
80023bb0:	e0823003 	add	r3, r2, r3
80023bb4:	e50b3010 	str	r3, [fp, #-16]
80023bb8:	e51b2028 	ldr	r2, [fp, #-40]	; 0xffffffd8
80023bbc:	e51b3018 	ldr	r3, [fp, #-24]	; 0xffffffe8
80023bc0:	e0823003 	add	r3, r2, r3
80023bc4:	e50b3028 	str	r3, [fp, #-40]	; 0xffffffd8
80023bc8:	e51b2024 	ldr	r2, [fp, #-36]	; 0xffffffdc
80023bcc:	e51b3018 	ldr	r3, [fp, #-24]	; 0xffffffe8
80023bd0:	e0823003 	add	r3, r2, r3
80023bd4:	e50b3024 	str	r3, [fp, #-36]	; 0xffffffdc
80023bd8:	e51b2010 	ldr	r2, [fp, #-16]
80023bdc:	e51b302c 	ldr	r3, [fp, #-44]	; 0xffffffd4
80023be0:	e1520003 	cmp	r2, r3
80023be4:	3affffca 	bcc	80023b14 <writei+0x100>
80023be8:	e51b302c 	ldr	r3, [fp, #-44]	; 0xffffffd4
80023bec:	e3530000 	cmp	r3, #0
80023bf0:	0a000009 	beq	80023c1c <writei+0x208>
80023bf4:	e51b3020 	ldr	r3, [fp, #-32]	; 0xffffffe0
80023bf8:	e5933018 	ldr	r3, [r3, #24]
80023bfc:	e51b2028 	ldr	r2, [fp, #-40]	; 0xffffffd8
80023c00:	e1520003 	cmp	r2, r3
80023c04:	9a000004 	bls	80023c1c <writei+0x208>
80023c08:	e51b3020 	ldr	r3, [fp, #-32]	; 0xffffffe0
80023c0c:	e51b2028 	ldr	r2, [fp, #-40]	; 0xffffffd8
80023c10:	e5832018 	str	r2, [r3, #24]
80023c14:	e51b0020 	ldr	r0, [fp, #-32]	; 0xffffffe0
80023c18:	ebfffcbc 	bl	80022f10 <iupdate>
80023c1c:	e51b302c 	ldr	r3, [fp, #-44]	; 0xffffffd4
80023c20:	e1a00003 	mov	r0, r3
80023c24:	e24bd008 	sub	sp, fp, #8
80023c28:	e8bd8810 	pop	{r4, fp, pc}
80023c2c:	800ad498 	.word	0x800ad498

80023c30 <namecmp>:
80023c30:	e92d4800 	push	{fp, lr}
80023c34:	e28db004 	add	fp, sp, #4
80023c38:	e24dd008 	sub	sp, sp, #8
80023c3c:	e50b0008 	str	r0, [fp, #-8]
80023c40:	e50b100c 	str	r1, [fp, #-12]
80023c44:	e3a0200e 	mov	r2, #14
80023c48:	e51b100c 	ldr	r1, [fp, #-12]
80023c4c:	e51b0008 	ldr	r0, [fp, #-8]
80023c50:	ebfff1a8 	bl	800202f8 <strncmp>
80023c54:	e1a03000 	mov	r3, r0
80023c58:	e1a00003 	mov	r0, r3
80023c5c:	e24bd004 	sub	sp, fp, #4
80023c60:	e8bd8800 	pop	{fp, pc}

80023c64 <dirlookup>:
80023c64:	e92d4800 	push	{fp, lr}
80023c68:	e28db004 	add	fp, sp, #4
80023c6c:	e24dd028 	sub	sp, sp, #40	; 0x28
80023c70:	e50b0020 	str	r0, [fp, #-32]	; 0xffffffe0
80023c74:	e50b1024 	str	r1, [fp, #-36]	; 0xffffffdc
80023c78:	e50b2028 	str	r2, [fp, #-40]	; 0xffffffd8
80023c7c:	e51b3020 	ldr	r3, [fp, #-32]	; 0xffffffe0
80023c80:	e1d331f0 	ldrsh	r3, [r3, #16]
80023c84:	e3530001 	cmp	r3, #1
80023c88:	0a000001 	beq	80023c94 <dirlookup+0x30>
80023c8c:	e59f00d0 	ldr	r0, [pc, #208]	; 80023d64 <dirlookup+0x100>
80023c90:	ebfff7aa 	bl	80021b40 <panic>
80023c94:	e3a03000 	mov	r3, #0
80023c98:	e50b3008 	str	r3, [fp, #-8]
80023c9c:	ea000027 	b	80023d40 <dirlookup+0xdc>
80023ca0:	e24b101c 	sub	r1, fp, #28
80023ca4:	e3a03010 	mov	r3, #16
80023ca8:	e51b2008 	ldr	r2, [fp, #-8]
80023cac:	e51b0020 	ldr	r0, [fp, #-32]	; 0xffffffe0
80023cb0:	ebfffedc 	bl	80023828 <readi>
80023cb4:	e1a03000 	mov	r3, r0
80023cb8:	e3530010 	cmp	r3, #16
80023cbc:	0a000001 	beq	80023cc8 <dirlookup+0x64>
80023cc0:	e59f00a0 	ldr	r0, [pc, #160]	; 80023d68 <dirlookup+0x104>
80023cc4:	ebfff79d 	bl	80021b40 <panic>
80023cc8:	e15b31bc 	ldrh	r3, [fp, #-28]	; 0xffffffe4
80023ccc:	e3530000 	cmp	r3, #0
80023cd0:	0a000016 	beq	80023d30 <dirlookup+0xcc>
80023cd4:	e24b301c 	sub	r3, fp, #28
80023cd8:	e2833002 	add	r3, r3, #2
80023cdc:	e1a01003 	mov	r1, r3
80023ce0:	e51b0024 	ldr	r0, [fp, #-36]	; 0xffffffdc
80023ce4:	ebffffd1 	bl	80023c30 <namecmp>
80023ce8:	e1a03000 	mov	r3, r0
80023cec:	e3530000 	cmp	r3, #0
80023cf0:	1a00000f 	bne	80023d34 <dirlookup+0xd0>
80023cf4:	e51b3028 	ldr	r3, [fp, #-40]	; 0xffffffd8
80023cf8:	e3530000 	cmp	r3, #0
80023cfc:	0a000002 	beq	80023d0c <dirlookup+0xa8>
80023d00:	e51b3028 	ldr	r3, [fp, #-40]	; 0xffffffd8
80023d04:	e51b2008 	ldr	r2, [fp, #-8]
80023d08:	e5832000 	str	r2, [r3]
80023d0c:	e15b31bc 	ldrh	r3, [fp, #-28]	; 0xffffffe4
80023d10:	e50b300c 	str	r3, [fp, #-12]
80023d14:	e51b3020 	ldr	r3, [fp, #-32]	; 0xffffffe0
80023d18:	e5933000 	ldr	r3, [r3]
80023d1c:	e51b100c 	ldr	r1, [fp, #-12]
80023d20:	e1a00003 	mov	r0, r3
80023d24:	ebfffcb1 	bl	80022ff0 <iget>
80023d28:	e1a03000 	mov	r3, r0
80023d2c:	ea000009 	b	80023d58 <dirlookup+0xf4>
80023d30:	e1a00000 	nop			; (mov r0, r0)
80023d34:	e51b3008 	ldr	r3, [fp, #-8]
80023d38:	e2833010 	add	r3, r3, #16
80023d3c:	e50b3008 	str	r3, [fp, #-8]
80023d40:	e51b3020 	ldr	r3, [fp, #-32]	; 0xffffffe0
80023d44:	e5933018 	ldr	r3, [r3, #24]
80023d48:	e51b2008 	ldr	r2, [fp, #-8]
80023d4c:	e1520003 	cmp	r2, r3
80023d50:	3affffd2 	bcc	80023ca0 <dirlookup+0x3c>
80023d54:	e3a03000 	mov	r3, #0
80023d58:	e1a00003 	mov	r0, r3
80023d5c:	e24bd004 	sub	sp, fp, #4
80023d60:	e8bd8800 	pop	{fp, pc}
80023d64:	8002a25c 	.word	0x8002a25c
80023d68:	8002a270 	.word	0x8002a270

80023d6c <dirlink>:
80023d6c:	e92d4800 	push	{fp, lr}
80023d70:	e28db004 	add	fp, sp, #4
80023d74:	e24dd028 	sub	sp, sp, #40	; 0x28
80023d78:	e50b0020 	str	r0, [fp, #-32]	; 0xffffffe0
80023d7c:	e50b1024 	str	r1, [fp, #-36]	; 0xffffffdc
80023d80:	e50b2028 	str	r2, [fp, #-40]	; 0xffffffd8
80023d84:	e3a02000 	mov	r2, #0
80023d88:	e51b1024 	ldr	r1, [fp, #-36]	; 0xffffffdc
80023d8c:	e51b0020 	ldr	r0, [fp, #-32]	; 0xffffffe0
80023d90:	ebffffb3 	bl	80023c64 <dirlookup>
80023d94:	e50b000c 	str	r0, [fp, #-12]
80023d98:	e51b300c 	ldr	r3, [fp, #-12]
80023d9c:	e3530000 	cmp	r3, #0
80023da0:	0a000003 	beq	80023db4 <dirlink+0x48>
80023da4:	e51b000c 	ldr	r0, [fp, #-12]
80023da8:	ebfffd78 	bl	80023390 <iput>
80023dac:	e3e03000 	mvn	r3, #0
80023db0:	ea00002d 	b	80023e6c <dirlink+0x100>
80023db4:	e3a03000 	mov	r3, #0
80023db8:	e50b3008 	str	r3, [fp, #-8]
80023dbc:	ea00000f 	b	80023e00 <dirlink+0x94>
80023dc0:	e51b2008 	ldr	r2, [fp, #-8]
80023dc4:	e24b101c 	sub	r1, fp, #28
80023dc8:	e3a03010 	mov	r3, #16
80023dcc:	e51b0020 	ldr	r0, [fp, #-32]	; 0xffffffe0
80023dd0:	ebfffe94 	bl	80023828 <readi>
80023dd4:	e1a03000 	mov	r3, r0
80023dd8:	e3530010 	cmp	r3, #16
80023ddc:	0a000001 	beq	80023de8 <dirlink+0x7c>
80023de0:	e59f0090 	ldr	r0, [pc, #144]	; 80023e78 <dirlink+0x10c>
80023de4:	ebfff755 	bl	80021b40 <panic>
80023de8:	e15b31bc 	ldrh	r3, [fp, #-28]	; 0xffffffe4
80023dec:	e3530000 	cmp	r3, #0
80023df0:	0a000008 	beq	80023e18 <dirlink+0xac>
80023df4:	e51b3008 	ldr	r3, [fp, #-8]
80023df8:	e2833010 	add	r3, r3, #16
80023dfc:	e50b3008 	str	r3, [fp, #-8]
80023e00:	e51b3020 	ldr	r3, [fp, #-32]	; 0xffffffe0
80023e04:	e5932018 	ldr	r2, [r3, #24]
80023e08:	e51b3008 	ldr	r3, [fp, #-8]
80023e0c:	e1520003 	cmp	r2, r3
80023e10:	8affffea 	bhi	80023dc0 <dirlink+0x54>
80023e14:	ea000000 	b	80023e1c <dirlink+0xb0>
80023e18:	e1a00000 	nop			; (mov r0, r0)
80023e1c:	e24b301c 	sub	r3, fp, #28
80023e20:	e2833002 	add	r3, r3, #2
80023e24:	e3a0200e 	mov	r2, #14
80023e28:	e51b1024 	ldr	r1, [fp, #-36]	; 0xffffffdc
80023e2c:	e1a00003 	mov	r0, r3
80023e30:	ebfff15c 	bl	800203a8 <strncpy>
80023e34:	e51b3028 	ldr	r3, [fp, #-40]	; 0xffffffd8
80023e38:	e6ff3073 	uxth	r3, r3
80023e3c:	e14b31bc 	strh	r3, [fp, #-28]	; 0xffffffe4
80023e40:	e51b2008 	ldr	r2, [fp, #-8]
80023e44:	e24b101c 	sub	r1, fp, #28
80023e48:	e3a03010 	mov	r3, #16
80023e4c:	e51b0020 	ldr	r0, [fp, #-32]	; 0xffffffe0
80023e50:	ebfffeef 	bl	80023a14 <writei>
80023e54:	e1a03000 	mov	r3, r0
80023e58:	e3530010 	cmp	r3, #16
80023e5c:	0a000001 	beq	80023e68 <dirlink+0xfc>
80023e60:	e59f0014 	ldr	r0, [pc, #20]	; 80023e7c <dirlink+0x110>
80023e64:	ebfff735 	bl	80021b40 <panic>
80023e68:	e3a03000 	mov	r3, #0
80023e6c:	e1a00003 	mov	r0, r3
80023e70:	e24bd004 	sub	sp, fp, #4
80023e74:	e8bd8800 	pop	{fp, pc}
80023e78:	8002a270 	.word	0x8002a270
80023e7c:	8002a280 	.word	0x8002a280

80023e80 <skipelem>:
80023e80:	e92d4800 	push	{fp, lr}
80023e84:	e28db004 	add	fp, sp, #4
80023e88:	e24dd010 	sub	sp, sp, #16
80023e8c:	e50b0010 	str	r0, [fp, #-16]
80023e90:	e50b1014 	str	r1, [fp, #-20]	; 0xffffffec
80023e94:	ea000002 	b	80023ea4 <skipelem+0x24>
80023e98:	e51b3010 	ldr	r3, [fp, #-16]
80023e9c:	e2833001 	add	r3, r3, #1
80023ea0:	e50b3010 	str	r3, [fp, #-16]
80023ea4:	e51b3010 	ldr	r3, [fp, #-16]
80023ea8:	e5d33000 	ldrb	r3, [r3]
80023eac:	e353002f 	cmp	r3, #47	; 0x2f
80023eb0:	0afffff8 	beq	80023e98 <skipelem+0x18>
80023eb4:	e51b3010 	ldr	r3, [fp, #-16]
80023eb8:	e5d33000 	ldrb	r3, [r3]
80023ebc:	e3530000 	cmp	r3, #0
80023ec0:	1a000001 	bne	80023ecc <skipelem+0x4c>
80023ec4:	e3a03000 	mov	r3, #0
80023ec8:	ea00002c 	b	80023f80 <skipelem+0x100>
80023ecc:	e51b3010 	ldr	r3, [fp, #-16]
80023ed0:	e50b3008 	str	r3, [fp, #-8]
80023ed4:	ea000002 	b	80023ee4 <skipelem+0x64>
80023ed8:	e51b3010 	ldr	r3, [fp, #-16]
80023edc:	e2833001 	add	r3, r3, #1
80023ee0:	e50b3010 	str	r3, [fp, #-16]
80023ee4:	e51b3010 	ldr	r3, [fp, #-16]
80023ee8:	e5d33000 	ldrb	r3, [r3]
80023eec:	e353002f 	cmp	r3, #47	; 0x2f
80023ef0:	0a000003 	beq	80023f04 <skipelem+0x84>
80023ef4:	e51b3010 	ldr	r3, [fp, #-16]
80023ef8:	e5d33000 	ldrb	r3, [r3]
80023efc:	e3530000 	cmp	r3, #0
80023f00:	1afffff4 	bne	80023ed8 <skipelem+0x58>
80023f04:	e51b2010 	ldr	r2, [fp, #-16]
80023f08:	e51b3008 	ldr	r3, [fp, #-8]
80023f0c:	e0423003 	sub	r3, r2, r3
80023f10:	e50b300c 	str	r3, [fp, #-12]
80023f14:	e51b300c 	ldr	r3, [fp, #-12]
80023f18:	e353000d 	cmp	r3, #13
80023f1c:	da000004 	ble	80023f34 <skipelem+0xb4>
80023f20:	e3a0200e 	mov	r2, #14
80023f24:	e51b1008 	ldr	r1, [fp, #-8]
80023f28:	e51b0014 	ldr	r0, [fp, #-20]	; 0xffffffec
80023f2c:	ebfff0a4 	bl	800201c4 <memmove>
80023f30:	ea00000d 	b	80023f6c <skipelem+0xec>
80023f34:	e51b300c 	ldr	r3, [fp, #-12]
80023f38:	e1a02003 	mov	r2, r3
80023f3c:	e51b1008 	ldr	r1, [fp, #-8]
80023f40:	e51b0014 	ldr	r0, [fp, #-20]	; 0xffffffec
80023f44:	ebfff09e 	bl	800201c4 <memmove>
80023f48:	e51b300c 	ldr	r3, [fp, #-12]
80023f4c:	e51b2014 	ldr	r2, [fp, #-20]	; 0xffffffec
80023f50:	e0823003 	add	r3, r2, r3
80023f54:	e3a02000 	mov	r2, #0
80023f58:	e5c32000 	strb	r2, [r3]
80023f5c:	ea000002 	b	80023f6c <skipelem+0xec>
80023f60:	e51b3010 	ldr	r3, [fp, #-16]
80023f64:	e2833001 	add	r3, r3, #1
80023f68:	e50b3010 	str	r3, [fp, #-16]
80023f6c:	e51b3010 	ldr	r3, [fp, #-16]
80023f70:	e5d33000 	ldrb	r3, [r3]
80023f74:	e353002f 	cmp	r3, #47	; 0x2f
80023f78:	0afffff8 	beq	80023f60 <skipelem+0xe0>
80023f7c:	e51b3010 	ldr	r3, [fp, #-16]
80023f80:	e1a00003 	mov	r0, r3
80023f84:	e24bd004 	sub	sp, fp, #4
80023f88:	e8bd8800 	pop	{fp, pc}

80023f8c <namex>:
80023f8c:	e92d4800 	push	{fp, lr}
80023f90:	e28db004 	add	fp, sp, #4
80023f94:	e24dd018 	sub	sp, sp, #24
80023f98:	e50b0010 	str	r0, [fp, #-16]
80023f9c:	e50b1014 	str	r1, [fp, #-20]	; 0xffffffec
80023fa0:	e50b2018 	str	r2, [fp, #-24]	; 0xffffffe8
80023fa4:	e51b3010 	ldr	r3, [fp, #-16]
80023fa8:	e5d33000 	ldrb	r3, [r3]
80023fac:	e353002f 	cmp	r3, #47	; 0x2f
80023fb0:	1a000004 	bne	80023fc8 <namex+0x3c>
80023fb4:	e3a01001 	mov	r1, #1
80023fb8:	e3a00001 	mov	r0, #1
80023fbc:	ebfffc0b 	bl	80022ff0 <iget>
80023fc0:	e50b0008 	str	r0, [fp, #-8]
80023fc4:	ea00002b 	b	80024078 <namex+0xec>
80023fc8:	e59f30f0 	ldr	r3, [pc, #240]	; 800240c0 <namex+0x134>
80023fcc:	e5933000 	ldr	r3, [r3]
80023fd0:	e5933068 	ldr	r3, [r3, #104]	; 0x68
80023fd4:	e1a00003 	mov	r0, r3
80023fd8:	ebfffc54 	bl	80023130 <idup>
80023fdc:	e50b0008 	str	r0, [fp, #-8]
80023fe0:	ea000024 	b	80024078 <namex+0xec>
80023fe4:	e51b0008 	ldr	r0, [fp, #-8]
80023fe8:	ebfffc62 	bl	80023178 <ilock>
80023fec:	e51b3008 	ldr	r3, [fp, #-8]
80023ff0:	e1d331f0 	ldrsh	r3, [r3, #16]
80023ff4:	e3530001 	cmp	r3, #1
80023ff8:	0a000003 	beq	8002400c <namex+0x80>
80023ffc:	e51b0008 	ldr	r0, [fp, #-8]
80024000:	ebfffd1d 	bl	8002347c <iunlockput>
80024004:	e3a03000 	mov	r3, #0
80024008:	ea000029 	b	800240b4 <namex+0x128>
8002400c:	e51b3014 	ldr	r3, [fp, #-20]	; 0xffffffec
80024010:	e3530000 	cmp	r3, #0
80024014:	0a000007 	beq	80024038 <namex+0xac>
80024018:	e51b3010 	ldr	r3, [fp, #-16]
8002401c:	e5d33000 	ldrb	r3, [r3]
80024020:	e3530000 	cmp	r3, #0
80024024:	1a000003 	bne	80024038 <namex+0xac>
80024028:	e51b0008 	ldr	r0, [fp, #-8]
8002402c:	ebfffcb5 	bl	80023308 <iunlock>
80024030:	e51b3008 	ldr	r3, [fp, #-8]
80024034:	ea00001e 	b	800240b4 <namex+0x128>
80024038:	e3a02000 	mov	r2, #0
8002403c:	e51b1018 	ldr	r1, [fp, #-24]	; 0xffffffe8
80024040:	e51b0008 	ldr	r0, [fp, #-8]
80024044:	ebffff06 	bl	80023c64 <dirlookup>
80024048:	e50b000c 	str	r0, [fp, #-12]
8002404c:	e51b300c 	ldr	r3, [fp, #-12]
80024050:	e3530000 	cmp	r3, #0
80024054:	1a000003 	bne	80024068 <namex+0xdc>
80024058:	e51b0008 	ldr	r0, [fp, #-8]
8002405c:	ebfffd06 	bl	8002347c <iunlockput>
80024060:	e3a03000 	mov	r3, #0
80024064:	ea000012 	b	800240b4 <namex+0x128>
80024068:	e51b0008 	ldr	r0, [fp, #-8]
8002406c:	ebfffd02 	bl	8002347c <iunlockput>
80024070:	e51b300c 	ldr	r3, [fp, #-12]
80024074:	e50b3008 	str	r3, [fp, #-8]
80024078:	e51b1018 	ldr	r1, [fp, #-24]	; 0xffffffe8
8002407c:	e51b0010 	ldr	r0, [fp, #-16]
80024080:	ebffff7e 	bl	80023e80 <skipelem>
80024084:	e50b0010 	str	r0, [fp, #-16]
80024088:	e51b3010 	ldr	r3, [fp, #-16]
8002408c:	e3530000 	cmp	r3, #0
80024090:	1affffd3 	bne	80023fe4 <namex+0x58>
80024094:	e51b3014 	ldr	r3, [fp, #-20]	; 0xffffffec
80024098:	e3530000 	cmp	r3, #0
8002409c:	0a000003 	beq	800240b0 <namex+0x124>
800240a0:	e51b0008 	ldr	r0, [fp, #-8]
800240a4:	ebfffcb9 	bl	80023390 <iput>
800240a8:	e3a03000 	mov	r3, #0
800240ac:	ea000000 	b	800240b4 <namex+0x128>
800240b0:	e51b3008 	ldr	r3, [fp, #-8]
800240b4:	e1a00003 	mov	r0, r3
800240b8:	e24bd004 	sub	sp, fp, #4
800240bc:	e8bd8800 	pop	{fp, pc}
800240c0:	800ae61c 	.word	0x800ae61c

800240c4 <namei>:
800240c4:	e92d4800 	push	{fp, lr}
800240c8:	e28db004 	add	fp, sp, #4
800240cc:	e24dd018 	sub	sp, sp, #24
800240d0:	e50b0018 	str	r0, [fp, #-24]	; 0xffffffe8
800240d4:	e24b3014 	sub	r3, fp, #20
800240d8:	e1a02003 	mov	r2, r3
800240dc:	e3a01000 	mov	r1, #0
800240e0:	e51b0018 	ldr	r0, [fp, #-24]	; 0xffffffe8
800240e4:	ebffffa8 	bl	80023f8c <namex>
800240e8:	e1a03000 	mov	r3, r0
800240ec:	e1a00003 	mov	r0, r3
800240f0:	e24bd004 	sub	sp, fp, #4
800240f4:	e8bd8800 	pop	{fp, pc}

800240f8 <nameiparent>:
800240f8:	e92d4800 	push	{fp, lr}
800240fc:	e28db004 	add	fp, sp, #4
80024100:	e24dd008 	sub	sp, sp, #8
80024104:	e50b0008 	str	r0, [fp, #-8]
80024108:	e50b100c 	str	r1, [fp, #-12]
8002410c:	e51b200c 	ldr	r2, [fp, #-12]
80024110:	e3a01001 	mov	r1, #1
80024114:	e51b0008 	ldr	r0, [fp, #-8]
80024118:	ebffff9b 	bl	80023f8c <namex>
8002411c:	e1a03000 	mov	r3, r0
80024120:	e1a00003 	mov	r0, r3
80024124:	e24bd004 	sub	sp, fp, #4
80024128:	e8bd8800 	pop	{fp, pc}

8002412c <initlog>:
8002412c:	e92d4800 	push	{fp, lr}
80024130:	e28db004 	add	fp, sp, #4
80024134:	e24dd010 	sub	sp, sp, #16
80024138:	e59f1058 	ldr	r1, [pc, #88]	; 80024198 <initlog+0x6c>
8002413c:	e59f0058 	ldr	r0, [pc, #88]	; 8002419c <initlog+0x70>
80024140:	eb00071a 	bl	80025db0 <initlock>
80024144:	e24b3014 	sub	r3, fp, #20
80024148:	e1a01003 	mov	r1, r3
8002414c:	e3a00001 	mov	r0, #1
80024150:	ebfffa36 	bl	80022a30 <readsb>
80024154:	e51b2014 	ldr	r2, [fp, #-20]	; 0xffffffec
80024158:	e51b3008 	ldr	r3, [fp, #-8]
8002415c:	e0423003 	sub	r3, r2, r3
80024160:	e1a02003 	mov	r2, r3
80024164:	e59f3030 	ldr	r3, [pc, #48]	; 8002419c <initlog+0x70>
80024168:	e5832034 	str	r2, [r3, #52]	; 0x34
8002416c:	e51b3008 	ldr	r3, [fp, #-8]
80024170:	e1a02003 	mov	r2, r3
80024174:	e59f3020 	ldr	r3, [pc, #32]	; 8002419c <initlog+0x70>
80024178:	e5832038 	str	r2, [r3, #56]	; 0x38
8002417c:	e59f3018 	ldr	r3, [pc, #24]	; 8002419c <initlog+0x70>
80024180:	e3a02001 	mov	r2, #1
80024184:	e5832040 	str	r2, [r3, #64]	; 0x40
80024188:	eb00009a 	bl	800243f8 <recover_from_log>
8002418c:	e1a00000 	nop			; (mov r0, r0)
80024190:	e24bd004 	sub	sp, fp, #4
80024194:	e8bd8800 	pop	{fp, pc}
80024198:	8002a288 	.word	0x8002a288
8002419c:	800ae4bc 	.word	0x800ae4bc

800241a0 <install_trans>:
800241a0:	e92d4800 	push	{fp, lr}
800241a4:	e28db004 	add	fp, sp, #4
800241a8:	e24dd010 	sub	sp, sp, #16
800241ac:	e3a03000 	mov	r3, #0
800241b0:	e50b3008 	str	r3, [fp, #-8]
800241b4:	ea000026 	b	80024254 <install_trans+0xb4>
800241b8:	e59f30b4 	ldr	r3, [pc, #180]	; 80024274 <install_trans+0xd4>
800241bc:	e5933040 	ldr	r3, [r3, #64]	; 0x40
800241c0:	e1a00003 	mov	r0, r3
800241c4:	e59f30a8 	ldr	r3, [pc, #168]	; 80024274 <install_trans+0xd4>
800241c8:	e5932034 	ldr	r2, [r3, #52]	; 0x34
800241cc:	e51b3008 	ldr	r3, [fp, #-8]
800241d0:	e0823003 	add	r3, r2, r3
800241d4:	e2833001 	add	r3, r3, #1
800241d8:	e1a01003 	mov	r1, r3
800241dc:	ebfff247 	bl	80020b00 <bread>
800241e0:	e50b000c 	str	r0, [fp, #-12]
800241e4:	e59f3088 	ldr	r3, [pc, #136]	; 80024274 <install_trans+0xd4>
800241e8:	e5933040 	ldr	r3, [r3, #64]	; 0x40
800241ec:	e1a00003 	mov	r0, r3
800241f0:	e59f207c 	ldr	r2, [pc, #124]	; 80024274 <install_trans+0xd4>
800241f4:	e51b3008 	ldr	r3, [fp, #-8]
800241f8:	e2833010 	add	r3, r3, #16
800241fc:	e1a03103 	lsl	r3, r3, #2
80024200:	e0823003 	add	r3, r2, r3
80024204:	e5933008 	ldr	r3, [r3, #8]
80024208:	e1a01003 	mov	r1, r3
8002420c:	ebfff23b 	bl	80020b00 <bread>
80024210:	e50b0010 	str	r0, [fp, #-16]
80024214:	e51b3010 	ldr	r3, [fp, #-16]
80024218:	e2830018 	add	r0, r3, #24
8002421c:	e51b300c 	ldr	r3, [fp, #-12]
80024220:	e2833018 	add	r3, r3, #24
80024224:	e3a02c02 	mov	r2, #512	; 0x200
80024228:	e1a01003 	mov	r1, r3
8002422c:	ebffefe4 	bl	800201c4 <memmove>
80024230:	e51b0010 	ldr	r0, [fp, #-16]
80024234:	ebfff245 	bl	80020b50 <bwrite>
80024238:	e51b000c 	ldr	r0, [fp, #-12]
8002423c:	ebfff259 	bl	80020ba8 <brelse>
80024240:	e51b0010 	ldr	r0, [fp, #-16]
80024244:	ebfff257 	bl	80020ba8 <brelse>
80024248:	e51b3008 	ldr	r3, [fp, #-8]
8002424c:	e2833001 	add	r3, r3, #1
80024250:	e50b3008 	str	r3, [fp, #-8]
80024254:	e59f3018 	ldr	r3, [pc, #24]	; 80024274 <install_trans+0xd4>
80024258:	e5933044 	ldr	r3, [r3, #68]	; 0x44
8002425c:	e51b2008 	ldr	r2, [fp, #-8]
80024260:	e1520003 	cmp	r2, r3
80024264:	baffffd3 	blt	800241b8 <install_trans+0x18>
80024268:	e1a00000 	nop			; (mov r0, r0)
8002426c:	e24bd004 	sub	sp, fp, #4
80024270:	e8bd8800 	pop	{fp, pc}
80024274:	800ae4bc 	.word	0x800ae4bc

80024278 <read_head>:
80024278:	e92d4800 	push	{fp, lr}
8002427c:	e28db004 	add	fp, sp, #4
80024280:	e24dd010 	sub	sp, sp, #16
80024284:	e59f30a4 	ldr	r3, [pc, #164]	; 80024330 <read_head+0xb8>
80024288:	e5933040 	ldr	r3, [r3, #64]	; 0x40
8002428c:	e1a02003 	mov	r2, r3
80024290:	e59f3098 	ldr	r3, [pc, #152]	; 80024330 <read_head+0xb8>
80024294:	e5933034 	ldr	r3, [r3, #52]	; 0x34
80024298:	e1a01003 	mov	r1, r3
8002429c:	e1a00002 	mov	r0, r2
800242a0:	ebfff216 	bl	80020b00 <bread>
800242a4:	e50b000c 	str	r0, [fp, #-12]
800242a8:	e51b300c 	ldr	r3, [fp, #-12]
800242ac:	e2833018 	add	r3, r3, #24
800242b0:	e50b3010 	str	r3, [fp, #-16]
800242b4:	e51b3010 	ldr	r3, [fp, #-16]
800242b8:	e5933000 	ldr	r3, [r3]
800242bc:	e59f206c 	ldr	r2, [pc, #108]	; 80024330 <read_head+0xb8>
800242c0:	e5823044 	str	r3, [r2, #68]	; 0x44
800242c4:	e3a03000 	mov	r3, #0
800242c8:	e50b3008 	str	r3, [fp, #-8]
800242cc:	ea00000d 	b	80024308 <read_head+0x90>
800242d0:	e51b2010 	ldr	r2, [fp, #-16]
800242d4:	e51b3008 	ldr	r3, [fp, #-8]
800242d8:	e1a03103 	lsl	r3, r3, #2
800242dc:	e0823003 	add	r3, r2, r3
800242e0:	e5932004 	ldr	r2, [r3, #4]
800242e4:	e59f1044 	ldr	r1, [pc, #68]	; 80024330 <read_head+0xb8>
800242e8:	e51b3008 	ldr	r3, [fp, #-8]
800242ec:	e2833010 	add	r3, r3, #16
800242f0:	e1a03103 	lsl	r3, r3, #2
800242f4:	e0813003 	add	r3, r1, r3
800242f8:	e5832008 	str	r2, [r3, #8]
800242fc:	e51b3008 	ldr	r3, [fp, #-8]
80024300:	e2833001 	add	r3, r3, #1
80024304:	e50b3008 	str	r3, [fp, #-8]
80024308:	e59f3020 	ldr	r3, [pc, #32]	; 80024330 <read_head+0xb8>
8002430c:	e5933044 	ldr	r3, [r3, #68]	; 0x44
80024310:	e51b2008 	ldr	r2, [fp, #-8]
80024314:	e1520003 	cmp	r2, r3
80024318:	baffffec 	blt	800242d0 <read_head+0x58>
8002431c:	e51b000c 	ldr	r0, [fp, #-12]
80024320:	ebfff220 	bl	80020ba8 <brelse>
80024324:	e1a00000 	nop			; (mov r0, r0)
80024328:	e24bd004 	sub	sp, fp, #4
8002432c:	e8bd8800 	pop	{fp, pc}
80024330:	800ae4bc 	.word	0x800ae4bc

80024334 <write_head>:
80024334:	e92d4800 	push	{fp, lr}
80024338:	e28db004 	add	fp, sp, #4
8002433c:	e24dd010 	sub	sp, sp, #16
80024340:	e59f30ac 	ldr	r3, [pc, #172]	; 800243f4 <write_head+0xc0>
80024344:	e5933040 	ldr	r3, [r3, #64]	; 0x40
80024348:	e1a02003 	mov	r2, r3
8002434c:	e59f30a0 	ldr	r3, [pc, #160]	; 800243f4 <write_head+0xc0>
80024350:	e5933034 	ldr	r3, [r3, #52]	; 0x34
80024354:	e1a01003 	mov	r1, r3
80024358:	e1a00002 	mov	r0, r2
8002435c:	ebfff1e7 	bl	80020b00 <bread>
80024360:	e50b000c 	str	r0, [fp, #-12]
80024364:	e51b300c 	ldr	r3, [fp, #-12]
80024368:	e2833018 	add	r3, r3, #24
8002436c:	e50b3010 	str	r3, [fp, #-16]
80024370:	e59f307c 	ldr	r3, [pc, #124]	; 800243f4 <write_head+0xc0>
80024374:	e5932044 	ldr	r2, [r3, #68]	; 0x44
80024378:	e51b3010 	ldr	r3, [fp, #-16]
8002437c:	e5832000 	str	r2, [r3]
80024380:	e3a03000 	mov	r3, #0
80024384:	e50b3008 	str	r3, [fp, #-8]
80024388:	ea00000d 	b	800243c4 <write_head+0x90>
8002438c:	e59f2060 	ldr	r2, [pc, #96]	; 800243f4 <write_head+0xc0>
80024390:	e51b3008 	ldr	r3, [fp, #-8]
80024394:	e2833010 	add	r3, r3, #16
80024398:	e1a03103 	lsl	r3, r3, #2
8002439c:	e0823003 	add	r3, r2, r3
800243a0:	e5932008 	ldr	r2, [r3, #8]
800243a4:	e51b1010 	ldr	r1, [fp, #-16]
800243a8:	e51b3008 	ldr	r3, [fp, #-8]
800243ac:	e1a03103 	lsl	r3, r3, #2
800243b0:	e0813003 	add	r3, r1, r3
800243b4:	e5832004 	str	r2, [r3, #4]
800243b8:	e51b3008 	ldr	r3, [fp, #-8]
800243bc:	e2833001 	add	r3, r3, #1
800243c0:	e50b3008 	str	r3, [fp, #-8]
800243c4:	e59f3028 	ldr	r3, [pc, #40]	; 800243f4 <write_head+0xc0>
800243c8:	e5933044 	ldr	r3, [r3, #68]	; 0x44
800243cc:	e51b2008 	ldr	r2, [fp, #-8]
800243d0:	e1520003 	cmp	r2, r3
800243d4:	baffffec 	blt	8002438c <write_head+0x58>
800243d8:	e51b000c 	ldr	r0, [fp, #-12]
800243dc:	ebfff1db 	bl	80020b50 <bwrite>
800243e0:	e51b000c 	ldr	r0, [fp, #-12]
800243e4:	ebfff1ef 	bl	80020ba8 <brelse>
800243e8:	e1a00000 	nop			; (mov r0, r0)
800243ec:	e24bd004 	sub	sp, fp, #4
800243f0:	e8bd8800 	pop	{fp, pc}
800243f4:	800ae4bc 	.word	0x800ae4bc

800243f8 <recover_from_log>:
800243f8:	e92d4800 	push	{fp, lr}
800243fc:	e28db004 	add	fp, sp, #4
80024400:	ebffff9c 	bl	80024278 <read_head>
80024404:	ebffff65 	bl	800241a0 <install_trans>
80024408:	e59f3010 	ldr	r3, [pc, #16]	; 80024420 <recover_from_log+0x28>
8002440c:	e3a02000 	mov	r2, #0
80024410:	e5832044 	str	r2, [r3, #68]	; 0x44
80024414:	ebffffc6 	bl	80024334 <write_head>
80024418:	e1a00000 	nop			; (mov r0, r0)
8002441c:	e8bd8800 	pop	{fp, pc}
80024420:	800ae4bc 	.word	0x800ae4bc

80024424 <begin_trans>:
80024424:	e92d4800 	push	{fp, lr}
80024428:	e28db004 	add	fp, sp, #4
8002442c:	e59f003c 	ldr	r0, [pc, #60]	; 80024470 <begin_trans+0x4c>
80024430:	eb000670 	bl	80025df8 <acquire>
80024434:	ea000002 	b	80024444 <begin_trans+0x20>
80024438:	e59f1030 	ldr	r1, [pc, #48]	; 80024470 <begin_trans+0x4c>
8002443c:	e59f002c 	ldr	r0, [pc, #44]	; 80024470 <begin_trans+0x4c>
80024440:	eb00051d 	bl	800258bc <sleep>
80024444:	e59f3024 	ldr	r3, [pc, #36]	; 80024470 <begin_trans+0x4c>
80024448:	e593303c 	ldr	r3, [r3, #60]	; 0x3c
8002444c:	e3530000 	cmp	r3, #0
80024450:	1afffff8 	bne	80024438 <begin_trans+0x14>
80024454:	e59f3014 	ldr	r3, [pc, #20]	; 80024470 <begin_trans+0x4c>
80024458:	e3a02001 	mov	r2, #1
8002445c:	e583203c 	str	r2, [r3, #60]	; 0x3c
80024460:	e59f0008 	ldr	r0, [pc, #8]	; 80024470 <begin_trans+0x4c>
80024464:	eb00066e 	bl	80025e24 <release>
80024468:	e1a00000 	nop			; (mov r0, r0)
8002446c:	e8bd8800 	pop	{fp, pc}
80024470:	800ae4bc 	.word	0x800ae4bc

80024474 <commit_trans>:
80024474:	e92d4800 	push	{fp, lr}
80024478:	e28db004 	add	fp, sp, #4
8002447c:	e59f304c 	ldr	r3, [pc, #76]	; 800244d0 <commit_trans+0x5c>
80024480:	e5933044 	ldr	r3, [r3, #68]	; 0x44
80024484:	e3530000 	cmp	r3, #0
80024488:	da000005 	ble	800244a4 <commit_trans+0x30>
8002448c:	ebffffa8 	bl	80024334 <write_head>
80024490:	ebffff42 	bl	800241a0 <install_trans>
80024494:	e59f3034 	ldr	r3, [pc, #52]	; 800244d0 <commit_trans+0x5c>
80024498:	e3a02000 	mov	r2, #0
8002449c:	e5832044 	str	r2, [r3, #68]	; 0x44
800244a0:	ebffffa3 	bl	80024334 <write_head>
800244a4:	e59f0024 	ldr	r0, [pc, #36]	; 800244d0 <commit_trans+0x5c>
800244a8:	eb000652 	bl	80025df8 <acquire>
800244ac:	e59f301c 	ldr	r3, [pc, #28]	; 800244d0 <commit_trans+0x5c>
800244b0:	e3a02000 	mov	r2, #0
800244b4:	e583203c 	str	r2, [r3, #60]	; 0x3c
800244b8:	e59f0010 	ldr	r0, [pc, #16]	; 800244d0 <commit_trans+0x5c>
800244bc:	eb000552 	bl	80025a0c <wakeup>
800244c0:	e59f0008 	ldr	r0, [pc, #8]	; 800244d0 <commit_trans+0x5c>
800244c4:	eb000656 	bl	80025e24 <release>
800244c8:	e1a00000 	nop			; (mov r0, r0)
800244cc:	e8bd8800 	pop	{fp, pc}
800244d0:	800ae4bc 	.word	0x800ae4bc

800244d4 <log_write>:
800244d4:	e92d4800 	push	{fp, lr}
800244d8:	e28db004 	add	fp, sp, #4
800244dc:	e24dd010 	sub	sp, sp, #16
800244e0:	e50b0010 	str	r0, [fp, #-16]
800244e4:	e59f3164 	ldr	r3, [pc, #356]	; 80024650 <log_write+0x17c>
800244e8:	e5933044 	ldr	r3, [r3, #68]	; 0x44
800244ec:	e3530009 	cmp	r3, #9
800244f0:	ca000006 	bgt	80024510 <log_write+0x3c>
800244f4:	e59f3154 	ldr	r3, [pc, #340]	; 80024650 <log_write+0x17c>
800244f8:	e5932044 	ldr	r2, [r3, #68]	; 0x44
800244fc:	e59f314c 	ldr	r3, [pc, #332]	; 80024650 <log_write+0x17c>
80024500:	e5933038 	ldr	r3, [r3, #56]	; 0x38
80024504:	e2433001 	sub	r3, r3, #1
80024508:	e1520003 	cmp	r2, r3
8002450c:	ba000001 	blt	80024518 <log_write+0x44>
80024510:	e59f013c 	ldr	r0, [pc, #316]	; 80024654 <log_write+0x180>
80024514:	ebfff589 	bl	80021b40 <panic>
80024518:	e59f3130 	ldr	r3, [pc, #304]	; 80024650 <log_write+0x17c>
8002451c:	e593303c 	ldr	r3, [r3, #60]	; 0x3c
80024520:	e3530000 	cmp	r3, #0
80024524:	1a000001 	bne	80024530 <log_write+0x5c>
80024528:	e59f0128 	ldr	r0, [pc, #296]	; 80024658 <log_write+0x184>
8002452c:	ebfff583 	bl	80021b40 <panic>
80024530:	e3a03000 	mov	r3, #0
80024534:	e50b3008 	str	r3, [fp, #-8]
80024538:	ea00000d 	b	80024574 <log_write+0xa0>
8002453c:	e59f210c 	ldr	r2, [pc, #268]	; 80024650 <log_write+0x17c>
80024540:	e51b3008 	ldr	r3, [fp, #-8]
80024544:	e2833010 	add	r3, r3, #16
80024548:	e1a03103 	lsl	r3, r3, #2
8002454c:	e0823003 	add	r3, r2, r3
80024550:	e5933008 	ldr	r3, [r3, #8]
80024554:	e1a02003 	mov	r2, r3
80024558:	e51b3010 	ldr	r3, [fp, #-16]
8002455c:	e5933008 	ldr	r3, [r3, #8]
80024560:	e1520003 	cmp	r2, r3
80024564:	0a000008 	beq	8002458c <log_write+0xb8>
80024568:	e51b3008 	ldr	r3, [fp, #-8]
8002456c:	e2833001 	add	r3, r3, #1
80024570:	e50b3008 	str	r3, [fp, #-8]
80024574:	e59f30d4 	ldr	r3, [pc, #212]	; 80024650 <log_write+0x17c>
80024578:	e5933044 	ldr	r3, [r3, #68]	; 0x44
8002457c:	e51b2008 	ldr	r2, [fp, #-8]
80024580:	e1520003 	cmp	r2, r3
80024584:	baffffec 	blt	8002453c <log_write+0x68>
80024588:	ea000000 	b	80024590 <log_write+0xbc>
8002458c:	e1a00000 	nop			; (mov r0, r0)
80024590:	e51b3010 	ldr	r3, [fp, #-16]
80024594:	e5933008 	ldr	r3, [r3, #8]
80024598:	e1a01003 	mov	r1, r3
8002459c:	e59f20ac 	ldr	r2, [pc, #172]	; 80024650 <log_write+0x17c>
800245a0:	e51b3008 	ldr	r3, [fp, #-8]
800245a4:	e2833010 	add	r3, r3, #16
800245a8:	e1a03103 	lsl	r3, r3, #2
800245ac:	e0823003 	add	r3, r2, r3
800245b0:	e5831008 	str	r1, [r3, #8]
800245b4:	e51b3010 	ldr	r3, [fp, #-16]
800245b8:	e5930004 	ldr	r0, [r3, #4]
800245bc:	e59f308c 	ldr	r3, [pc, #140]	; 80024650 <log_write+0x17c>
800245c0:	e5932034 	ldr	r2, [r3, #52]	; 0x34
800245c4:	e51b3008 	ldr	r3, [fp, #-8]
800245c8:	e0823003 	add	r3, r2, r3
800245cc:	e2833001 	add	r3, r3, #1
800245d0:	e1a01003 	mov	r1, r3
800245d4:	ebfff149 	bl	80020b00 <bread>
800245d8:	e50b000c 	str	r0, [fp, #-12]
800245dc:	e51b300c 	ldr	r3, [fp, #-12]
800245e0:	e2830018 	add	r0, r3, #24
800245e4:	e51b3010 	ldr	r3, [fp, #-16]
800245e8:	e2833018 	add	r3, r3, #24
800245ec:	e3a02c02 	mov	r2, #512	; 0x200
800245f0:	e1a01003 	mov	r1, r3
800245f4:	ebffeef2 	bl	800201c4 <memmove>
800245f8:	e51b000c 	ldr	r0, [fp, #-12]
800245fc:	ebfff153 	bl	80020b50 <bwrite>
80024600:	e51b000c 	ldr	r0, [fp, #-12]
80024604:	ebfff167 	bl	80020ba8 <brelse>
80024608:	e59f3040 	ldr	r3, [pc, #64]	; 80024650 <log_write+0x17c>
8002460c:	e5933044 	ldr	r3, [r3, #68]	; 0x44
80024610:	e51b2008 	ldr	r2, [fp, #-8]
80024614:	e1520003 	cmp	r2, r3
80024618:	1a000004 	bne	80024630 <log_write+0x15c>
8002461c:	e59f302c 	ldr	r3, [pc, #44]	; 80024650 <log_write+0x17c>
80024620:	e5933044 	ldr	r3, [r3, #68]	; 0x44
80024624:	e2833001 	add	r3, r3, #1
80024628:	e59f2020 	ldr	r2, [pc, #32]	; 80024650 <log_write+0x17c>
8002462c:	e5823044 	str	r3, [r2, #68]	; 0x44
80024630:	e51b3010 	ldr	r3, [fp, #-16]
80024634:	e5933000 	ldr	r3, [r3]
80024638:	e3832004 	orr	r2, r3, #4
8002463c:	e51b3010 	ldr	r3, [fp, #-16]
80024640:	e5832000 	str	r2, [r3]
80024644:	e1a00000 	nop			; (mov r0, r0)
80024648:	e24bd004 	sub	sp, fp, #4
8002464c:	e8bd8800 	pop	{fp, pc}
80024650:	800ae4bc 	.word	0x800ae4bc
80024654:	8002a28c 	.word	0x8002a28c
80024658:	8002a2a4 	.word	0x8002a2a4

8002465c <kmain>:
8002465c:	e92d4800 	push	{fp, lr}
80024660:	e28db004 	add	fp, sp, #4
80024664:	e24dd008 	sub	sp, sp, #8
80024668:	e59f30b8 	ldr	r3, [pc, #184]	; 80024728 <kmain+0xcc>
8002466c:	e59f20b8 	ldr	r2, [pc, #184]	; 8002472c <kmain+0xd0>
80024670:	e5832000 	str	r2, [r3]
80024674:	e59f00b4 	ldr	r0, [pc, #180]	; 80024730 <kmain+0xd4>
80024678:	eb001354 	bl	800293d0 <uart_init>
8002467c:	e59f30b0 	ldr	r3, [pc, #176]	; 80024734 <kmain+0xd8>
80024680:	e50b3008 	str	r3, [fp, #-8]
80024684:	eb000f50 	bl	800283cc <init_vmm>
80024688:	e59f30a8 	ldr	r3, [pc, #168]	; 80024738 <kmain+0xdc>
8002468c:	e2833fff 	add	r3, r3, #1020	; 0x3fc
80024690:	e2833003 	add	r3, r3, #3
80024694:	e3c33fff 	bic	r3, r3, #1020	; 0x3fc
80024698:	e3c33003 	bic	r3, r3, #3
8002469c:	e51b1008 	ldr	r1, [fp, #-8]
800246a0:	e1a00003 	mov	r0, r3
800246a4:	eb000f7c 	bl	8002849c <kpt_freerange>
800246a8:	e51b3008 	ldr	r3, [fp, #-8]
800246ac:	e2833b01 	add	r3, r3, #1024	; 0x400
800246b0:	e59f1084 	ldr	r1, [pc, #132]	; 8002473c <kmain+0xe0>
800246b4:	e1a00003 	mov	r0, r3
800246b8:	eb000f77 	bl	8002849c <kpt_freerange>
800246bc:	e3a01302 	mov	r1, #134217728	; 0x8000000
800246c0:	e3a00601 	mov	r0, #1048576	; 0x100000
800246c4:	eb00123d 	bl	80028fc0 <paging_init>
800246c8:	ebfff1b5 	bl	80020da4 <kmem_init>
800246cc:	e3a01322 	mov	r1, #-2013265920	; 0x88000000
800246d0:	e59f0064 	ldr	r0, [pc, #100]	; 8002473c <kmain+0xe0>
800246d4:	ebfff1bb 	bl	80020dc8 <kmem_init2>
800246d8:	ebfff41c 	bl	80021750 <kmemfree>
800246dc:	e1a03000 	mov	r3, r0
800246e0:	e1a01003 	mov	r1, r3
800246e4:	e59f0054 	ldr	r0, [pc, #84]	; 80024740 <kmain+0xe4>
800246e8:	ebfff493 	bl	8002193c <cprintf>
800246ec:	eb000e3b 	bl	80027fe0 <trap_init>
800246f0:	e59f004c 	ldr	r0, [pc, #76]	; 80024744 <kmain+0xe8>
800246f4:	eb001252 	bl	80029044 <pic_init>
800246f8:	eb001365 	bl	80029494 <uart_enable_rx>
800246fc:	ebfff63a 	bl	80021fec <consoleinit>
80024700:	eb0001b7 	bl	80024de4 <pinit>
80024704:	ebfff06d 	bl	800208c0 <binit>
80024708:	ebfff784 	bl	80022520 <fileinit>
8002470c:	ebfff9b6 	bl	80022dec <iinit>
80024710:	eb00000c 	bl	80024748 <ideinit>
80024714:	e3a0000a 	mov	r0, #10
80024718:	eb0012db 	bl	8002928c <timer_init>
8002471c:	ebffef93 	bl	80020570 <sti>
80024720:	eb000224 	bl	80024fb8 <userinit>
80024724:	eb0003da 	bl	80025694 <scheduler>
80024728:	800ae52c 	.word	0x800ae52c
8002472c:	800ae530 	.word	0x800ae530
80024730:	901f1000 	.word	0x901f1000
80024734:	800f0000 	.word	0x800f0000
80024738:	800b1000 	.word	0x800b1000
8002473c:	80100000 	.word	0x80100000
80024740:	8002a2bc 	.word	0x8002a2bc
80024744:	90140000 	.word	0x90140000

80024748 <ideinit>:
80024748:	e52db004 	push	{fp}		; (str fp, [sp, #-4]!)
8002474c:	e28db000 	add	fp, sp, #0
80024750:	e59f3028 	ldr	r3, [pc, #40]	; 80024780 <ideinit+0x38>
80024754:	e59f2028 	ldr	r2, [pc, #40]	; 80024784 <ideinit+0x3c>
80024758:	e5832000 	str	r2, [r3]
8002475c:	e59f3024 	ldr	r3, [pc, #36]	; 80024788 <ideinit+0x40>
80024760:	e1a034a3 	lsr	r3, r3, #9
80024764:	e1a02003 	mov	r2, r3
80024768:	e59f301c 	ldr	r3, [pc, #28]	; 8002478c <ideinit+0x44>
8002476c:	e5832000 	str	r2, [r3]
80024770:	e1a00000 	nop			; (mov r0, r0)
80024774:	e28bd000 	add	sp, fp, #0
80024778:	e49db004 	pop	{fp}		; (ldr fp, [sp], #4)
8002477c:	e12fff1e 	bx	lr
80024780:	800ae614 	.word	0x800ae614
80024784:	8002b0d4 	.word	0x8002b0d4
80024788:	00080000 	.word	0x00080000
8002478c:	800ae610 	.word	0x800ae610

80024790 <ideintr>:
80024790:	e52db004 	push	{fp}		; (str fp, [sp, #-4]!)
80024794:	e28db000 	add	fp, sp, #0
80024798:	e1a00000 	nop			; (mov r0, r0)
8002479c:	e28bd000 	add	sp, fp, #0
800247a0:	e49db004 	pop	{fp}		; (ldr fp, [sp], #4)
800247a4:	e12fff1e 	bx	lr

800247a8 <iderw>:
800247a8:	e92d4800 	push	{fp, lr}
800247ac:	e28db004 	add	fp, sp, #4
800247b0:	e24dd010 	sub	sp, sp, #16
800247b4:	e50b0010 	str	r0, [fp, #-16]
800247b8:	e51b3010 	ldr	r3, [fp, #-16]
800247bc:	e5933000 	ldr	r3, [r3]
800247c0:	e2033001 	and	r3, r3, #1
800247c4:	e3530000 	cmp	r3, #0
800247c8:	1a000001 	bne	800247d4 <iderw+0x2c>
800247cc:	e59f00ec 	ldr	r0, [pc, #236]	; 800248c0 <iderw+0x118>
800247d0:	ebfff4da 	bl	80021b40 <panic>
800247d4:	e51b3010 	ldr	r3, [fp, #-16]
800247d8:	e5933000 	ldr	r3, [r3]
800247dc:	e2033006 	and	r3, r3, #6
800247e0:	e3530002 	cmp	r3, #2
800247e4:	1a000001 	bne	800247f0 <iderw+0x48>
800247e8:	e59f00d4 	ldr	r0, [pc, #212]	; 800248c4 <iderw+0x11c>
800247ec:	ebfff4d3 	bl	80021b40 <panic>
800247f0:	e51b3010 	ldr	r3, [fp, #-16]
800247f4:	e5933004 	ldr	r3, [r3, #4]
800247f8:	e3530001 	cmp	r3, #1
800247fc:	0a000001 	beq	80024808 <iderw+0x60>
80024800:	e59f00c0 	ldr	r0, [pc, #192]	; 800248c8 <iderw+0x120>
80024804:	ebfff4cd 	bl	80021b40 <panic>
80024808:	e51b3010 	ldr	r3, [fp, #-16]
8002480c:	e5933008 	ldr	r3, [r3, #8]
80024810:	e59f20b4 	ldr	r2, [pc, #180]	; 800248cc <iderw+0x124>
80024814:	e5922000 	ldr	r2, [r2]
80024818:	e1530002 	cmp	r3, r2
8002481c:	3a000001 	bcc	80024828 <iderw+0x80>
80024820:	e59f00a8 	ldr	r0, [pc, #168]	; 800248d0 <iderw+0x128>
80024824:	ebfff4c5 	bl	80021b40 <panic>
80024828:	e59f30a4 	ldr	r3, [pc, #164]	; 800248d4 <iderw+0x12c>
8002482c:	e5932000 	ldr	r2, [r3]
80024830:	e51b3010 	ldr	r3, [fp, #-16]
80024834:	e5933008 	ldr	r3, [r3, #8]
80024838:	e1a03483 	lsl	r3, r3, #9
8002483c:	e0823003 	add	r3, r2, r3
80024840:	e50b3008 	str	r3, [fp, #-8]
80024844:	e51b3010 	ldr	r3, [fp, #-16]
80024848:	e5933000 	ldr	r3, [r3]
8002484c:	e2033004 	and	r3, r3, #4
80024850:	e3530000 	cmp	r3, #0
80024854:	0a00000b 	beq	80024888 <iderw+0xe0>
80024858:	e51b3010 	ldr	r3, [fp, #-16]
8002485c:	e5933000 	ldr	r3, [r3]
80024860:	e3c32004 	bic	r2, r3, #4
80024864:	e51b3010 	ldr	r3, [fp, #-16]
80024868:	e5832000 	str	r2, [r3]
8002486c:	e51b3010 	ldr	r3, [fp, #-16]
80024870:	e2833018 	add	r3, r3, #24
80024874:	e3a02c02 	mov	r2, #512	; 0x200
80024878:	e1a01003 	mov	r1, r3
8002487c:	e51b0008 	ldr	r0, [fp, #-8]
80024880:	ebffee4f 	bl	800201c4 <memmove>
80024884:	ea000005 	b	800248a0 <iderw+0xf8>
80024888:	e51b3010 	ldr	r3, [fp, #-16]
8002488c:	e2833018 	add	r3, r3, #24
80024890:	e3a02c02 	mov	r2, #512	; 0x200
80024894:	e51b1008 	ldr	r1, [fp, #-8]
80024898:	e1a00003 	mov	r0, r3
8002489c:	ebffee48 	bl	800201c4 <memmove>
800248a0:	e51b3010 	ldr	r3, [fp, #-16]
800248a4:	e5933000 	ldr	r3, [r3]
800248a8:	e3832002 	orr	r2, r3, #2
800248ac:	e51b3010 	ldr	r3, [fp, #-16]
800248b0:	e5832000 	str	r2, [r3]
800248b4:	e1a00000 	nop			; (mov r0, r0)
800248b8:	e24bd004 	sub	sp, fp, #4
800248bc:	e8bd8800 	pop	{fp, pc}
800248c0:	8002a2e8 	.word	0x8002a2e8
800248c4:	8002a2fc 	.word	0x8002a2fc
800248c8:	8002a314 	.word	0x8002a314
800248cc:	800ae610 	.word	0x800ae610
800248d0:	8002a334 	.word	0x8002a334
800248d4:	800ae614 	.word	0x800ae614

800248d8 <pipealloc>:
800248d8:	e92d4800 	push	{fp, lr}
800248dc:	e28db004 	add	fp, sp, #4
800248e0:	e24dd010 	sub	sp, sp, #16
800248e4:	e50b0010 	str	r0, [fp, #-16]
800248e8:	e50b1014 	str	r1, [fp, #-20]	; 0xffffffec
800248ec:	e3a03000 	mov	r3, #0
800248f0:	e50b3008 	str	r3, [fp, #-8]
800248f4:	e51b3014 	ldr	r3, [fp, #-20]	; 0xffffffec
800248f8:	e3a02000 	mov	r2, #0
800248fc:	e5832000 	str	r2, [r3]
80024900:	e51b3014 	ldr	r3, [fp, #-20]	; 0xffffffec
80024904:	e5932000 	ldr	r2, [r3]
80024908:	e51b3010 	ldr	r3, [fp, #-16]
8002490c:	e5832000 	str	r2, [r3]
80024910:	ebfff70b 	bl	80022544 <filealloc>
80024914:	e1a02000 	mov	r2, r0
80024918:	e51b3010 	ldr	r3, [fp, #-16]
8002491c:	e5832000 	str	r2, [r3]
80024920:	e51b3010 	ldr	r3, [fp, #-16]
80024924:	e5933000 	ldr	r3, [r3]
80024928:	e3530000 	cmp	r3, #0
8002492c:	0a000042 	beq	80024a3c <pipealloc+0x164>
80024930:	ebfff703 	bl	80022544 <filealloc>
80024934:	e1a02000 	mov	r2, r0
80024938:	e51b3014 	ldr	r3, [fp, #-20]	; 0xffffffec
8002493c:	e5832000 	str	r2, [r3]
80024940:	e51b3014 	ldr	r3, [fp, #-20]	; 0xffffffec
80024944:	e5933000 	ldr	r3, [r3]
80024948:	e3530000 	cmp	r3, #0
8002494c:	0a00003a 	beq	80024a3c <pipealloc+0x164>
80024950:	e3a00f91 	mov	r0, #580	; 0x244
80024954:	ebfff337 	bl	80021638 <get_order>
80024958:	e1a03000 	mov	r3, r0
8002495c:	e1a00003 	mov	r0, r3
80024960:	ebfff2ab 	bl	80021414 <kmalloc>
80024964:	e50b0008 	str	r0, [fp, #-8]
80024968:	e51b3008 	ldr	r3, [fp, #-8]
8002496c:	e3530000 	cmp	r3, #0
80024970:	0a000033 	beq	80024a44 <pipealloc+0x16c>
80024974:	e51b3008 	ldr	r3, [fp, #-8]
80024978:	e3a02001 	mov	r2, #1
8002497c:	e583223c 	str	r2, [r3, #572]	; 0x23c
80024980:	e51b3008 	ldr	r3, [fp, #-8]
80024984:	e3a02001 	mov	r2, #1
80024988:	e5832240 	str	r2, [r3, #576]	; 0x240
8002498c:	e51b3008 	ldr	r3, [fp, #-8]
80024990:	e3a02000 	mov	r2, #0
80024994:	e5832238 	str	r2, [r3, #568]	; 0x238
80024998:	e51b3008 	ldr	r3, [fp, #-8]
8002499c:	e3a02000 	mov	r2, #0
800249a0:	e5832234 	str	r2, [r3, #564]	; 0x234
800249a4:	e51b3008 	ldr	r3, [fp, #-8]
800249a8:	e59f110c 	ldr	r1, [pc, #268]	; 80024abc <pipealloc+0x1e4>
800249ac:	e1a00003 	mov	r0, r3
800249b0:	eb0004fe 	bl	80025db0 <initlock>
800249b4:	e51b3010 	ldr	r3, [fp, #-16]
800249b8:	e5933000 	ldr	r3, [r3]
800249bc:	e3a02001 	mov	r2, #1
800249c0:	e5c32000 	strb	r2, [r3]
800249c4:	e51b3010 	ldr	r3, [fp, #-16]
800249c8:	e5933000 	ldr	r3, [r3]
800249cc:	e3a02001 	mov	r2, #1
800249d0:	e5c32008 	strb	r2, [r3, #8]
800249d4:	e51b3010 	ldr	r3, [fp, #-16]
800249d8:	e5933000 	ldr	r3, [r3]
800249dc:	e3a02000 	mov	r2, #0
800249e0:	e5c32009 	strb	r2, [r3, #9]
800249e4:	e51b3010 	ldr	r3, [fp, #-16]
800249e8:	e5933000 	ldr	r3, [r3]
800249ec:	e51b2008 	ldr	r2, [fp, #-8]
800249f0:	e583200c 	str	r2, [r3, #12]
800249f4:	e51b3014 	ldr	r3, [fp, #-20]	; 0xffffffec
800249f8:	e5933000 	ldr	r3, [r3]
800249fc:	e3a02001 	mov	r2, #1
80024a00:	e5c32000 	strb	r2, [r3]
80024a04:	e51b3014 	ldr	r3, [fp, #-20]	; 0xffffffec
80024a08:	e5933000 	ldr	r3, [r3]
80024a0c:	e3a02000 	mov	r2, #0
80024a10:	e5c32008 	strb	r2, [r3, #8]
80024a14:	e51b3014 	ldr	r3, [fp, #-20]	; 0xffffffec
80024a18:	e5933000 	ldr	r3, [r3]
80024a1c:	e3a02001 	mov	r2, #1
80024a20:	e5c32009 	strb	r2, [r3, #9]
80024a24:	e51b3014 	ldr	r3, [fp, #-20]	; 0xffffffec
80024a28:	e5933000 	ldr	r3, [r3]
80024a2c:	e51b2008 	ldr	r2, [fp, #-8]
80024a30:	e583200c 	str	r2, [r3, #12]
80024a34:	e3a03000 	mov	r3, #0
80024a38:	ea00001c 	b	80024ab0 <pipealloc+0x1d8>
80024a3c:	e1a00000 	nop			; (mov r0, r0)
80024a40:	ea000000 	b	80024a48 <pipealloc+0x170>
80024a44:	e1a00000 	nop			; (mov r0, r0)
80024a48:	e51b3008 	ldr	r3, [fp, #-8]
80024a4c:	e3530000 	cmp	r3, #0
80024a50:	0a000005 	beq	80024a6c <pipealloc+0x194>
80024a54:	e3a00f91 	mov	r0, #580	; 0x244
80024a58:	ebfff2f6 	bl	80021638 <get_order>
80024a5c:	e1a03000 	mov	r3, r0
80024a60:	e1a01003 	mov	r1, r3
80024a64:	e51b0008 	ldr	r0, [fp, #-8]
80024a68:	ebfff2bf 	bl	8002156c <kfree>
80024a6c:	e51b3010 	ldr	r3, [fp, #-16]
80024a70:	e5933000 	ldr	r3, [r3]
80024a74:	e3530000 	cmp	r3, #0
80024a78:	0a000003 	beq	80024a8c <pipealloc+0x1b4>
80024a7c:	e51b3010 	ldr	r3, [fp, #-16]
80024a80:	e5933000 	ldr	r3, [r3]
80024a84:	e1a00003 	mov	r0, r3
80024a88:	ebfff6e9 	bl	80022634 <fileclose>
80024a8c:	e51b3014 	ldr	r3, [fp, #-20]	; 0xffffffec
80024a90:	e5933000 	ldr	r3, [r3]
80024a94:	e3530000 	cmp	r3, #0
80024a98:	0a000003 	beq	80024aac <pipealloc+0x1d4>
80024a9c:	e51b3014 	ldr	r3, [fp, #-20]	; 0xffffffec
80024aa0:	e5933000 	ldr	r3, [r3]
80024aa4:	e1a00003 	mov	r0, r3
80024aa8:	ebfff6e1 	bl	80022634 <fileclose>
80024aac:	e3e03000 	mvn	r3, #0
80024ab0:	e1a00003 	mov	r0, r3
80024ab4:	e24bd004 	sub	sp, fp, #4
80024ab8:	e8bd8800 	pop	{fp, pc}
80024abc:	8002a350 	.word	0x8002a350

80024ac0 <pipeclose>:
80024ac0:	e92d4800 	push	{fp, lr}
80024ac4:	e28db004 	add	fp, sp, #4
80024ac8:	e24dd008 	sub	sp, sp, #8
80024acc:	e50b0008 	str	r0, [fp, #-8]
80024ad0:	e50b100c 	str	r1, [fp, #-12]
80024ad4:	e51b3008 	ldr	r3, [fp, #-8]
80024ad8:	e1a00003 	mov	r0, r3
80024adc:	eb0004c5 	bl	80025df8 <acquire>
80024ae0:	e51b300c 	ldr	r3, [fp, #-12]
80024ae4:	e3530000 	cmp	r3, #0
80024ae8:	0a000007 	beq	80024b0c <pipeclose+0x4c>
80024aec:	e51b3008 	ldr	r3, [fp, #-8]
80024af0:	e3a02000 	mov	r2, #0
80024af4:	e5832240 	str	r2, [r3, #576]	; 0x240
80024af8:	e51b3008 	ldr	r3, [fp, #-8]
80024afc:	e2833f8d 	add	r3, r3, #564	; 0x234
80024b00:	e1a00003 	mov	r0, r3
80024b04:	eb0003c0 	bl	80025a0c <wakeup>
80024b08:	ea000006 	b	80024b28 <pipeclose+0x68>
80024b0c:	e51b3008 	ldr	r3, [fp, #-8]
80024b10:	e3a02000 	mov	r2, #0
80024b14:	e583223c 	str	r2, [r3, #572]	; 0x23c
80024b18:	e51b3008 	ldr	r3, [fp, #-8]
80024b1c:	e2833f8e 	add	r3, r3, #568	; 0x238
80024b20:	e1a00003 	mov	r0, r3
80024b24:	eb0003b8 	bl	80025a0c <wakeup>
80024b28:	e51b3008 	ldr	r3, [fp, #-8]
80024b2c:	e593323c 	ldr	r3, [r3, #572]	; 0x23c
80024b30:	e3530000 	cmp	r3, #0
80024b34:	1a00000d 	bne	80024b70 <pipeclose+0xb0>
80024b38:	e51b3008 	ldr	r3, [fp, #-8]
80024b3c:	e5933240 	ldr	r3, [r3, #576]	; 0x240
80024b40:	e3530000 	cmp	r3, #0
80024b44:	1a000009 	bne	80024b70 <pipeclose+0xb0>
80024b48:	e51b3008 	ldr	r3, [fp, #-8]
80024b4c:	e1a00003 	mov	r0, r3
80024b50:	eb0004b3 	bl	80025e24 <release>
80024b54:	e3a00f91 	mov	r0, #580	; 0x244
80024b58:	ebfff2b6 	bl	80021638 <get_order>
80024b5c:	e1a03000 	mov	r3, r0
80024b60:	e1a01003 	mov	r1, r3
80024b64:	e51b0008 	ldr	r0, [fp, #-8]
80024b68:	ebfff27f 	bl	8002156c <kfree>
80024b6c:	ea000002 	b	80024b7c <pipeclose+0xbc>
80024b70:	e51b3008 	ldr	r3, [fp, #-8]
80024b74:	e1a00003 	mov	r0, r3
80024b78:	eb0004a9 	bl	80025e24 <release>
80024b7c:	e1a00000 	nop			; (mov r0, r0)
80024b80:	e24bd004 	sub	sp, fp, #4
80024b84:	e8bd8800 	pop	{fp, pc}

80024b88 <pipewrite>:
80024b88:	e92d4800 	push	{fp, lr}
80024b8c:	e28db004 	add	fp, sp, #4
80024b90:	e24dd018 	sub	sp, sp, #24
80024b94:	e50b0010 	str	r0, [fp, #-16]
80024b98:	e50b1014 	str	r1, [fp, #-20]	; 0xffffffec
80024b9c:	e50b2018 	str	r2, [fp, #-24]	; 0xffffffe8
80024ba0:	e51b3010 	ldr	r3, [fp, #-16]
80024ba4:	e1a00003 	mov	r0, r3
80024ba8:	eb000492 	bl	80025df8 <acquire>
80024bac:	e3a03000 	mov	r3, #0
80024bb0:	e50b3008 	str	r3, [fp, #-8]
80024bb4:	ea00002b 	b	80024c68 <pipewrite+0xe0>
80024bb8:	e51b3010 	ldr	r3, [fp, #-16]
80024bbc:	e593323c 	ldr	r3, [r3, #572]	; 0x23c
80024bc0:	e3530000 	cmp	r3, #0
80024bc4:	1a000004 	bne	80024bdc <pipewrite+0x54>
80024bc8:	e51b3010 	ldr	r3, [fp, #-16]
80024bcc:	e1a00003 	mov	r0, r3
80024bd0:	eb000493 	bl	80025e24 <release>
80024bd4:	e3e03000 	mvn	r3, #0
80024bd8:	ea00002e 	b	80024c98 <pipewrite+0x110>
80024bdc:	e51b3010 	ldr	r3, [fp, #-16]
80024be0:	e2833f8d 	add	r3, r3, #564	; 0x234
80024be4:	e1a00003 	mov	r0, r3
80024be8:	eb000387 	bl	80025a0c <wakeup>
80024bec:	e51b3010 	ldr	r3, [fp, #-16]
80024bf0:	e2833f8e 	add	r3, r3, #568	; 0x238
80024bf4:	e51b2010 	ldr	r2, [fp, #-16]
80024bf8:	e1a01002 	mov	r1, r2
80024bfc:	e1a00003 	mov	r0, r3
80024c00:	eb00032d 	bl	800258bc <sleep>
80024c04:	e51b3010 	ldr	r3, [fp, #-16]
80024c08:	e5932238 	ldr	r2, [r3, #568]	; 0x238
80024c0c:	e51b3010 	ldr	r3, [fp, #-16]
80024c10:	e5933234 	ldr	r3, [r3, #564]	; 0x234
80024c14:	e2833c02 	add	r3, r3, #512	; 0x200
80024c18:	e1520003 	cmp	r2, r3
80024c1c:	0affffe5 	beq	80024bb8 <pipewrite+0x30>
80024c20:	e51b3008 	ldr	r3, [fp, #-8]
80024c24:	e51b2014 	ldr	r2, [fp, #-20]	; 0xffffffec
80024c28:	e0822003 	add	r2, r2, r3
80024c2c:	e51b3010 	ldr	r3, [fp, #-16]
80024c30:	e5933238 	ldr	r3, [r3, #568]	; 0x238
80024c34:	e2830001 	add	r0, r3, #1
80024c38:	e51b1010 	ldr	r1, [fp, #-16]
80024c3c:	e5810238 	str	r0, [r1, #568]	; 0x238
80024c40:	e1a03b83 	lsl	r3, r3, #23
80024c44:	e1a03ba3 	lsr	r3, r3, #23
80024c48:	e5d21000 	ldrb	r1, [r2]
80024c4c:	e51b2010 	ldr	r2, [fp, #-16]
80024c50:	e0823003 	add	r3, r2, r3
80024c54:	e1a02001 	mov	r2, r1
80024c58:	e5c32034 	strb	r2, [r3, #52]	; 0x34
80024c5c:	e51b3008 	ldr	r3, [fp, #-8]
80024c60:	e2833001 	add	r3, r3, #1
80024c64:	e50b3008 	str	r3, [fp, #-8]
80024c68:	e51b2008 	ldr	r2, [fp, #-8]
80024c6c:	e51b3018 	ldr	r3, [fp, #-24]	; 0xffffffe8
80024c70:	e1520003 	cmp	r2, r3
80024c74:	baffffe2 	blt	80024c04 <pipewrite+0x7c>
80024c78:	e51b3010 	ldr	r3, [fp, #-16]
80024c7c:	e2833f8d 	add	r3, r3, #564	; 0x234
80024c80:	e1a00003 	mov	r0, r3
80024c84:	eb000360 	bl	80025a0c <wakeup>
80024c88:	e51b3010 	ldr	r3, [fp, #-16]
80024c8c:	e1a00003 	mov	r0, r3
80024c90:	eb000463 	bl	80025e24 <release>
80024c94:	e51b3018 	ldr	r3, [fp, #-24]	; 0xffffffe8
80024c98:	e1a00003 	mov	r0, r3
80024c9c:	e24bd004 	sub	sp, fp, #4
80024ca0:	e8bd8800 	pop	{fp, pc}

80024ca4 <piperead>:
80024ca4:	e92d4800 	push	{fp, lr}
80024ca8:	e28db004 	add	fp, sp, #4
80024cac:	e24dd018 	sub	sp, sp, #24
80024cb0:	e50b0010 	str	r0, [fp, #-16]
80024cb4:	e50b1014 	str	r1, [fp, #-20]	; 0xffffffec
80024cb8:	e50b2018 	str	r2, [fp, #-24]	; 0xffffffe8
80024cbc:	e51b3010 	ldr	r3, [fp, #-16]
80024cc0:	e1a00003 	mov	r0, r3
80024cc4:	eb00044b 	bl	80025df8 <acquire>
80024cc8:	ea00000f 	b	80024d0c <piperead+0x68>
80024ccc:	e59f310c 	ldr	r3, [pc, #268]	; 80024de0 <piperead+0x13c>
80024cd0:	e5933000 	ldr	r3, [r3]
80024cd4:	e5933024 	ldr	r3, [r3, #36]	; 0x24
80024cd8:	e3530000 	cmp	r3, #0
80024cdc:	0a000004 	beq	80024cf4 <piperead+0x50>
80024ce0:	e51b3010 	ldr	r3, [fp, #-16]
80024ce4:	e1a00003 	mov	r0, r3
80024ce8:	eb00044d 	bl	80025e24 <release>
80024cec:	e3e03000 	mvn	r3, #0
80024cf0:	ea000037 	b	80024dd4 <piperead+0x130>
80024cf4:	e51b3010 	ldr	r3, [fp, #-16]
80024cf8:	e2833f8d 	add	r3, r3, #564	; 0x234
80024cfc:	e51b2010 	ldr	r2, [fp, #-16]
80024d00:	e1a01002 	mov	r1, r2
80024d04:	e1a00003 	mov	r0, r3
80024d08:	eb0002eb 	bl	800258bc <sleep>
80024d0c:	e51b3010 	ldr	r3, [fp, #-16]
80024d10:	e5932234 	ldr	r2, [r3, #564]	; 0x234
80024d14:	e51b3010 	ldr	r3, [fp, #-16]
80024d18:	e5933238 	ldr	r3, [r3, #568]	; 0x238
80024d1c:	e1520003 	cmp	r2, r3
80024d20:	1a000003 	bne	80024d34 <piperead+0x90>
80024d24:	e51b3010 	ldr	r3, [fp, #-16]
80024d28:	e5933240 	ldr	r3, [r3, #576]	; 0x240
80024d2c:	e3530000 	cmp	r3, #0
80024d30:	1affffe5 	bne	80024ccc <piperead+0x28>
80024d34:	e3a03000 	mov	r3, #0
80024d38:	e50b3008 	str	r3, [fp, #-8]
80024d3c:	ea000016 	b	80024d9c <piperead+0xf8>
80024d40:	e51b3010 	ldr	r3, [fp, #-16]
80024d44:	e5932234 	ldr	r2, [r3, #564]	; 0x234
80024d48:	e51b3010 	ldr	r3, [fp, #-16]
80024d4c:	e5933238 	ldr	r3, [r3, #568]	; 0x238
80024d50:	e1520003 	cmp	r2, r3
80024d54:	0a000015 	beq	80024db0 <piperead+0x10c>
80024d58:	e51b3010 	ldr	r3, [fp, #-16]
80024d5c:	e5933234 	ldr	r3, [r3, #564]	; 0x234
80024d60:	e2831001 	add	r1, r3, #1
80024d64:	e51b2010 	ldr	r2, [fp, #-16]
80024d68:	e5821234 	str	r1, [r2, #564]	; 0x234
80024d6c:	e1a03b83 	lsl	r3, r3, #23
80024d70:	e1a03ba3 	lsr	r3, r3, #23
80024d74:	e51b2008 	ldr	r2, [fp, #-8]
80024d78:	e51b1014 	ldr	r1, [fp, #-20]	; 0xffffffec
80024d7c:	e0812002 	add	r2, r1, r2
80024d80:	e51b1010 	ldr	r1, [fp, #-16]
80024d84:	e0813003 	add	r3, r1, r3
80024d88:	e5d33034 	ldrb	r3, [r3, #52]	; 0x34
80024d8c:	e5c23000 	strb	r3, [r2]
80024d90:	e51b3008 	ldr	r3, [fp, #-8]
80024d94:	e2833001 	add	r3, r3, #1
80024d98:	e50b3008 	str	r3, [fp, #-8]
80024d9c:	e51b2008 	ldr	r2, [fp, #-8]
80024da0:	e51b3018 	ldr	r3, [fp, #-24]	; 0xffffffe8
80024da4:	e1520003 	cmp	r2, r3
80024da8:	baffffe4 	blt	80024d40 <piperead+0x9c>
80024dac:	ea000000 	b	80024db4 <piperead+0x110>
80024db0:	e1a00000 	nop			; (mov r0, r0)
80024db4:	e51b3010 	ldr	r3, [fp, #-16]
80024db8:	e2833f8e 	add	r3, r3, #568	; 0x238
80024dbc:	e1a00003 	mov	r0, r3
80024dc0:	eb000311 	bl	80025a0c <wakeup>
80024dc4:	e51b3010 	ldr	r3, [fp, #-16]
80024dc8:	e1a00003 	mov	r0, r3
80024dcc:	eb000414 	bl	80025e24 <release>
80024dd0:	e51b3008 	ldr	r3, [fp, #-8]
80024dd4:	e1a00003 	mov	r0, r3
80024dd8:	e24bd004 	sub	sp, fp, #4
80024ddc:	e8bd8800 	pop	{fp, pc}
80024de0:	800ae61c 	.word	0x800ae61c

80024de4 <pinit>:
80024de4:	e92d4800 	push	{fp, lr}
80024de8:	e28db004 	add	fp, sp, #4
80024dec:	e59f100c 	ldr	r1, [pc, #12]	; 80024e00 <pinit+0x1c>
80024df0:	e59f000c 	ldr	r0, [pc, #12]	; 80024e04 <pinit+0x20>
80024df4:	eb0003ed 	bl	80025db0 <initlock>
80024df8:	e1a00000 	nop			; (mov r0, r0)
80024dfc:	e8bd8800 	pop	{fp, pc}
80024e00:	8002a358 	.word	0x8002a358
80024e04:	800ae620 	.word	0x800ae620

80024e08 <allocproc>:
80024e08:	e92d4800 	push	{fp, lr}
80024e0c:	e28db004 	add	fp, sp, #4
80024e10:	e24dd008 	sub	sp, sp, #8
80024e14:	e59f0170 	ldr	r0, [pc, #368]	; 80024f8c <allocproc+0x184>
80024e18:	eb0003f6 	bl	80025df8 <acquire>
80024e1c:	e59f316c 	ldr	r3, [pc, #364]	; 80024f90 <allocproc+0x188>
80024e20:	e50b3008 	str	r3, [fp, #-8]
80024e24:	ea000006 	b	80024e44 <allocproc+0x3c>
80024e28:	e51b3008 	ldr	r3, [fp, #-8]
80024e2c:	e5d3300c 	ldrb	r3, [r3, #12]
80024e30:	e3530000 	cmp	r3, #0
80024e34:	0a00000a 	beq	80024e64 <allocproc+0x5c>
80024e38:	e51b3008 	ldr	r3, [fp, #-8]
80024e3c:	e2833080 	add	r3, r3, #128	; 0x80
80024e40:	e50b3008 	str	r3, [fp, #-8]
80024e44:	e51b3008 	ldr	r3, [fp, #-8]
80024e48:	e59f2144 	ldr	r2, [pc, #324]	; 80024f94 <allocproc+0x18c>
80024e4c:	e1530002 	cmp	r3, r2
80024e50:	3afffff4 	bcc	80024e28 <allocproc+0x20>
80024e54:	e59f0130 	ldr	r0, [pc, #304]	; 80024f8c <allocproc+0x184>
80024e58:	eb0003f1 	bl	80025e24 <release>
80024e5c:	e3a03000 	mov	r3, #0
80024e60:	ea000046 	b	80024f80 <allocproc+0x178>
80024e64:	e1a00000 	nop			; (mov r0, r0)
80024e68:	e51b3008 	ldr	r3, [fp, #-8]
80024e6c:	e3a02001 	mov	r2, #1
80024e70:	e5c3200c 	strb	r2, [r3, #12]
80024e74:	e59f311c 	ldr	r3, [pc, #284]	; 80024f98 <allocproc+0x190>
80024e78:	e5933000 	ldr	r3, [r3]
80024e7c:	e2832001 	add	r2, r3, #1
80024e80:	e59f1110 	ldr	r1, [pc, #272]	; 80024f98 <allocproc+0x190>
80024e84:	e5812000 	str	r2, [r1]
80024e88:	e51b2008 	ldr	r2, [fp, #-8]
80024e8c:	e5823010 	str	r3, [r2, #16]
80024e90:	e59f00f4 	ldr	r0, [pc, #244]	; 80024f8c <allocproc+0x184>
80024e94:	eb0003e2 	bl	80025e24 <release>
80024e98:	ebfff1df 	bl	8002161c <alloc_page>
80024e9c:	e1a02000 	mov	r2, r0
80024ea0:	e51b3008 	ldr	r3, [fp, #-8]
80024ea4:	e5832008 	str	r2, [r3, #8]
80024ea8:	e51b3008 	ldr	r3, [fp, #-8]
80024eac:	e5933008 	ldr	r3, [r3, #8]
80024eb0:	e3530000 	cmp	r3, #0
80024eb4:	1a000004 	bne	80024ecc <allocproc+0xc4>
80024eb8:	e51b3008 	ldr	r3, [fp, #-8]
80024ebc:	e3a02000 	mov	r2, #0
80024ec0:	e5c3200c 	strb	r2, [r3, #12]
80024ec4:	e3a03000 	mov	r3, #0
80024ec8:	ea00002c 	b	80024f80 <allocproc+0x178>
80024ecc:	e51b3008 	ldr	r3, [fp, #-8]
80024ed0:	e5933008 	ldr	r3, [r3, #8]
80024ed4:	e2833a01 	add	r3, r3, #4096	; 0x1000
80024ed8:	e50b300c 	str	r3, [fp, #-12]
80024edc:	e51b300c 	ldr	r3, [fp, #-12]
80024ee0:	e2433048 	sub	r3, r3, #72	; 0x48
80024ee4:	e50b300c 	str	r3, [fp, #-12]
80024ee8:	e51b3008 	ldr	r3, [fp, #-8]
80024eec:	e51b200c 	ldr	r2, [fp, #-12]
80024ef0:	e5832018 	str	r2, [r3, #24]
80024ef4:	e51b300c 	ldr	r3, [fp, #-12]
80024ef8:	e2433004 	sub	r3, r3, #4
80024efc:	e50b300c 	str	r3, [fp, #-12]
80024f00:	e59f2094 	ldr	r2, [pc, #148]	; 80024f9c <allocproc+0x194>
80024f04:	e51b300c 	ldr	r3, [fp, #-12]
80024f08:	e5832000 	str	r2, [r3]
80024f0c:	e51b300c 	ldr	r3, [fp, #-12]
80024f10:	e2433004 	sub	r3, r3, #4
80024f14:	e50b300c 	str	r3, [fp, #-12]
80024f18:	e51b3008 	ldr	r3, [fp, #-8]
80024f1c:	e5933008 	ldr	r3, [r3, #8]
80024f20:	e2832a01 	add	r2, r3, #4096	; 0x1000
80024f24:	e51b300c 	ldr	r3, [fp, #-12]
80024f28:	e5832000 	str	r2, [r3]
80024f2c:	e51b300c 	ldr	r3, [fp, #-12]
80024f30:	e2433028 	sub	r3, r3, #40	; 0x28
80024f34:	e50b300c 	str	r3, [fp, #-12]
80024f38:	e51b3008 	ldr	r3, [fp, #-8]
80024f3c:	e51b200c 	ldr	r2, [fp, #-12]
80024f40:	e583201c 	str	r2, [r3, #28]
80024f44:	e51b3008 	ldr	r3, [fp, #-8]
80024f48:	e593301c 	ldr	r3, [r3, #28]
80024f4c:	e3a02028 	mov	r2, #40	; 0x28
80024f50:	e3a01000 	mov	r1, #0
80024f54:	e1a00003 	mov	r0, r3
80024f58:	ebffec28 	bl	80020000 <memset>
80024f5c:	e59f203c 	ldr	r2, [pc, #60]	; 80024fa0 <allocproc+0x198>
80024f60:	e51b3008 	ldr	r3, [fp, #-8]
80024f64:	e593301c 	ldr	r3, [r3, #28]
80024f68:	e2822004 	add	r2, r2, #4
80024f6c:	e5832024 	str	r2, [r3, #36]	; 0x24
80024f70:	e51b3008 	ldr	r3, [fp, #-8]
80024f74:	e3a02000 	mov	r2, #0
80024f78:	e583207c 	str	r2, [r3, #124]	; 0x7c
80024f7c:	e51b3008 	ldr	r3, [fp, #-8]
80024f80:	e1a00003 	mov	r0, r3
80024f84:	e24bd004 	sub	sp, fp, #4
80024f88:	e8bd8800 	pop	{fp, pc}
80024f8c:	800ae620 	.word	0x800ae620
80024f90:	800ae654 	.word	0x800ae654
80024f94:	800b0654 	.word	0x800b0654
80024f98:	8002b014 	.word	0x8002b014
80024f9c:	80027c58 	.word	0x80027c58
80024fa0:	8002587c 	.word	0x8002587c

80024fa4 <error_init>:
80024fa4:	e92d4800 	push	{fp, lr}
80024fa8:	e28db004 	add	fp, sp, #4
80024fac:	e59f0000 	ldr	r0, [pc]	; 80024fb4 <error_init+0x10>
80024fb0:	ebfff2e2 	bl	80021b40 <panic>
80024fb4:	8002a360 	.word	0x8002a360

80024fb8 <userinit>:
80024fb8:	e92d4810 	push	{r4, fp, lr}
80024fbc:	e28db008 	add	fp, sp, #8
80024fc0:	e24dd00c 	sub	sp, sp, #12
80024fc4:	ebffff8f 	bl	80024e08 <allocproc>
80024fc8:	e50b0010 	str	r0, [fp, #-16]
80024fcc:	e59f2100 	ldr	r2, [pc, #256]	; 800250d4 <userinit+0x11c>
80024fd0:	e51b3010 	ldr	r3, [fp, #-16]
80024fd4:	e5823000 	str	r3, [r2]
80024fd8:	eb000d42 	bl	800284e8 <kpt_alloc>
80024fdc:	e1a02000 	mov	r2, r0
80024fe0:	e51b3010 	ldr	r3, [fp, #-16]
80024fe4:	e5832004 	str	r2, [r3, #4]
80024fe8:	e51b3010 	ldr	r3, [fp, #-16]
80024fec:	e5933004 	ldr	r3, [r3, #4]
80024ff0:	e3530000 	cmp	r3, #0
80024ff4:	1a000001 	bne	80025000 <userinit+0x48>
80024ff8:	e59f00d8 	ldr	r0, [pc, #216]	; 800250d8 <userinit+0x120>
80024ffc:	ebfff2cf 	bl	80021b40 <panic>
80025000:	e51b3010 	ldr	r3, [fp, #-16]
80025004:	e5933004 	ldr	r3, [r3, #4]
80025008:	e59f20cc 	ldr	r2, [pc, #204]	; 800250dc <userinit+0x124>
8002500c:	e59f10cc 	ldr	r1, [pc, #204]	; 800250e0 <userinit+0x128>
80025010:	e1a00003 	mov	r0, r3
80025014:	eb000df1 	bl	800287e0 <inituvm>
80025018:	e51b3010 	ldr	r3, [fp, #-16]
8002501c:	e3a02a01 	mov	r2, #4096	; 0x1000
80025020:	e5832000 	str	r2, [r3]
80025024:	e51b3010 	ldr	r3, [fp, #-16]
80025028:	e5933018 	ldr	r3, [r3, #24]
8002502c:	e3a02048 	mov	r2, #72	; 0x48
80025030:	e3a01000 	mov	r1, #0
80025034:	e1a00003 	mov	r0, r3
80025038:	ebffebf0 	bl	80020000 <memset>
8002503c:	e51b3010 	ldr	r3, [fp, #-16]
80025040:	e5933018 	ldr	r3, [r3, #24]
80025044:	e59f2098 	ldr	r2, [pc, #152]	; 800250e4 <userinit+0x12c>
80025048:	e5832008 	str	r2, [r3, #8]
8002504c:	e51b3010 	ldr	r3, [fp, #-16]
80025050:	e5934018 	ldr	r4, [r3, #24]
80025054:	ebffed53 	bl	800205a8 <spsr_usr>
80025058:	e1a03000 	mov	r3, r0
8002505c:	e584300c 	str	r3, [r4, #12]
80025060:	e51b3010 	ldr	r3, [fp, #-16]
80025064:	e5933018 	ldr	r3, [r3, #24]
80025068:	e3a02a01 	mov	r2, #4096	; 0x1000
8002506c:	e5832000 	str	r2, [r3]
80025070:	e51b3010 	ldr	r3, [fp, #-16]
80025074:	e5933018 	ldr	r3, [r3, #24]
80025078:	e3a02000 	mov	r2, #0
8002507c:	e5832004 	str	r2, [r3, #4]
80025080:	e51b3010 	ldr	r3, [fp, #-16]
80025084:	e5933018 	ldr	r3, [r3, #24]
80025088:	e3a02000 	mov	r2, #0
8002508c:	e5832044 	str	r2, [r3, #68]	; 0x44
80025090:	e51b3010 	ldr	r3, [fp, #-16]
80025094:	e283306c 	add	r3, r3, #108	; 0x6c
80025098:	e3a02010 	mov	r2, #16
8002509c:	e59f1044 	ldr	r1, [pc, #68]	; 800250e8 <userinit+0x130>
800250a0:	e1a00003 	mov	r0, r3
800250a4:	ebffece8 	bl	8002044c <safestrcpy>
800250a8:	e59f003c 	ldr	r0, [pc, #60]	; 800250ec <userinit+0x134>
800250ac:	ebfffc04 	bl	800240c4 <namei>
800250b0:	e1a02000 	mov	r2, r0
800250b4:	e51b3010 	ldr	r3, [fp, #-16]
800250b8:	e5832068 	str	r2, [r3, #104]	; 0x68
800250bc:	e51b3010 	ldr	r3, [fp, #-16]
800250c0:	e3a02003 	mov	r2, #3
800250c4:	e5c3200c 	strb	r2, [r3, #12]
800250c8:	e1a00000 	nop			; (mov r0, r0)
800250cc:	e24bd008 	sub	sp, fp, #8
800250d0:	e8bd8810 	pop	{r4, fp, pc}
800250d4:	800ae618 	.word	0x800ae618
800250d8:	8002a380 	.word	0x8002a380
800250dc:	00000034 	.word	0x00000034
800250e0:	8002b0a0 	.word	0x8002b0a0
800250e4:	80024fa4 	.word	0x80024fa4
800250e8:	8002a39c 	.word	0x8002a39c
800250ec:	8002a3a8 	.word	0x8002a3a8

800250f0 <growproc>:
800250f0:	e92d4800 	push	{fp, lr}
800250f4:	e28db004 	add	fp, sp, #4
800250f8:	e24dd010 	sub	sp, sp, #16
800250fc:	e50b0010 	str	r0, [fp, #-16]
80025100:	e59f30d0 	ldr	r3, [pc, #208]	; 800251d8 <growproc+0xe8>
80025104:	e5933000 	ldr	r3, [r3]
80025108:	e5933000 	ldr	r3, [r3]
8002510c:	e50b3008 	str	r3, [fp, #-8]
80025110:	e51b3010 	ldr	r3, [fp, #-16]
80025114:	e3530000 	cmp	r3, #0
80025118:	da00000f 	ble	8002515c <growproc+0x6c>
8002511c:	e59f30b4 	ldr	r3, [pc, #180]	; 800251d8 <growproc+0xe8>
80025120:	e5933000 	ldr	r3, [r3]
80025124:	e5930004 	ldr	r0, [r3, #4]
80025128:	e51b2010 	ldr	r2, [fp, #-16]
8002512c:	e51b3008 	ldr	r3, [fp, #-8]
80025130:	e0823003 	add	r3, r2, r3
80025134:	e1a02003 	mov	r2, r3
80025138:	e51b1008 	ldr	r1, [fp, #-8]
8002513c:	eb000e16 	bl	8002899c <allocuvm>
80025140:	e1a03000 	mov	r3, r0
80025144:	e50b3008 	str	r3, [fp, #-8]
80025148:	e51b3008 	ldr	r3, [fp, #-8]
8002514c:	e3530000 	cmp	r3, #0
80025150:	1a000014 	bne	800251a8 <growproc+0xb8>
80025154:	e3e03000 	mvn	r3, #0
80025158:	ea00001b 	b	800251cc <growproc+0xdc>
8002515c:	e51b3010 	ldr	r3, [fp, #-16]
80025160:	e3530000 	cmp	r3, #0
80025164:	aa00000f 	bge	800251a8 <growproc+0xb8>
80025168:	e59f3068 	ldr	r3, [pc, #104]	; 800251d8 <growproc+0xe8>
8002516c:	e5933000 	ldr	r3, [r3]
80025170:	e5930004 	ldr	r0, [r3, #4]
80025174:	e51b2010 	ldr	r2, [fp, #-16]
80025178:	e51b3008 	ldr	r3, [fp, #-8]
8002517c:	e0823003 	add	r3, r2, r3
80025180:	e1a02003 	mov	r2, r3
80025184:	e51b1008 	ldr	r1, [fp, #-8]
80025188:	eb000e43 	bl	80028a9c <deallocuvm>
8002518c:	e1a03000 	mov	r3, r0
80025190:	e50b3008 	str	r3, [fp, #-8]
80025194:	e51b3008 	ldr	r3, [fp, #-8]
80025198:	e3530000 	cmp	r3, #0
8002519c:	1a000001 	bne	800251a8 <growproc+0xb8>
800251a0:	e3e03000 	mvn	r3, #0
800251a4:	ea000008 	b	800251cc <growproc+0xdc>
800251a8:	e59f3028 	ldr	r3, [pc, #40]	; 800251d8 <growproc+0xe8>
800251ac:	e5933000 	ldr	r3, [r3]
800251b0:	e51b2008 	ldr	r2, [fp, #-8]
800251b4:	e5832000 	str	r2, [r3]
800251b8:	e59f3018 	ldr	r3, [pc, #24]	; 800251d8 <growproc+0xe8>
800251bc:	e5933000 	ldr	r3, [r3]
800251c0:	e1a00003 	mov	r0, r3
800251c4:	eb000d6e 	bl	80028784 <switchuvm>
800251c8:	e3a03000 	mov	r3, #0
800251cc:	e1a00003 	mov	r0, r3
800251d0:	e24bd004 	sub	sp, fp, #4
800251d4:	e8bd8800 	pop	{fp, pc}
800251d8:	800ae61c 	.word	0x800ae61c

800251dc <fork>:
800251dc:	e92d4800 	push	{fp, lr}
800251e0:	e28db004 	add	fp, sp, #4
800251e4:	e24dd010 	sub	sp, sp, #16
800251e8:	ebffff06 	bl	80024e08 <allocproc>
800251ec:	e50b000c 	str	r0, [fp, #-12]
800251f0:	e51b300c 	ldr	r3, [fp, #-12]
800251f4:	e3530000 	cmp	r3, #0
800251f8:	1a000001 	bne	80025204 <fork+0x28>
800251fc:	e3e03000 	mvn	r3, #0
80025200:	ea000065 	b	8002539c <fork+0x1c0>
80025204:	e59f319c 	ldr	r3, [pc, #412]	; 800253a8 <fork+0x1cc>
80025208:	e5933000 	ldr	r3, [r3]
8002520c:	e5932004 	ldr	r2, [r3, #4]
80025210:	e59f3190 	ldr	r3, [pc, #400]	; 800253a8 <fork+0x1cc>
80025214:	e5933000 	ldr	r3, [r3]
80025218:	e5933000 	ldr	r3, [r3]
8002521c:	e1a01003 	mov	r1, r3
80025220:	e1a00002 	mov	r0, r2
80025224:	eb000eab 	bl	80028cd8 <copyuvm>
80025228:	e1a02000 	mov	r2, r0
8002522c:	e51b300c 	ldr	r3, [fp, #-12]
80025230:	e5832004 	str	r2, [r3, #4]
80025234:	e51b300c 	ldr	r3, [fp, #-12]
80025238:	e5933004 	ldr	r3, [r3, #4]
8002523c:	e3530000 	cmp	r3, #0
80025240:	1a00000b 	bne	80025274 <fork+0x98>
80025244:	e51b300c 	ldr	r3, [fp, #-12]
80025248:	e5933008 	ldr	r3, [r3, #8]
8002524c:	e1a00003 	mov	r0, r3
80025250:	ebfff0e7 	bl	800215f4 <free_page>
80025254:	e51b300c 	ldr	r3, [fp, #-12]
80025258:	e3a02000 	mov	r2, #0
8002525c:	e5832008 	str	r2, [r3, #8]
80025260:	e51b300c 	ldr	r3, [fp, #-12]
80025264:	e3a02000 	mov	r2, #0
80025268:	e5c3200c 	strb	r2, [r3, #12]
8002526c:	e3e03000 	mvn	r3, #0
80025270:	ea000049 	b	8002539c <fork+0x1c0>
80025274:	e59f312c 	ldr	r3, [pc, #300]	; 800253a8 <fork+0x1cc>
80025278:	e5933000 	ldr	r3, [r3]
8002527c:	e5932000 	ldr	r2, [r3]
80025280:	e51b300c 	ldr	r3, [fp, #-12]
80025284:	e5832000 	str	r2, [r3]
80025288:	e59f3118 	ldr	r3, [pc, #280]	; 800253a8 <fork+0x1cc>
8002528c:	e5932000 	ldr	r2, [r3]
80025290:	e51b300c 	ldr	r3, [fp, #-12]
80025294:	e5832014 	str	r2, [r3, #20]
80025298:	e59f3108 	ldr	r3, [pc, #264]	; 800253a8 <fork+0x1cc>
8002529c:	e5933000 	ldr	r3, [r3]
800252a0:	e5932018 	ldr	r2, [r3, #24]
800252a4:	e51b300c 	ldr	r3, [fp, #-12]
800252a8:	e5933018 	ldr	r3, [r3, #24]
800252ac:	e1a00003 	mov	r0, r3
800252b0:	e1a01002 	mov	r1, r2
800252b4:	e3a03048 	mov	r3, #72	; 0x48
800252b8:	e1a02003 	mov	r2, r3
800252bc:	ebffebff 	bl	800202c0 <memcpy>
800252c0:	e51b300c 	ldr	r3, [fp, #-12]
800252c4:	e5933018 	ldr	r3, [r3, #24]
800252c8:	e3a02000 	mov	r2, #0
800252cc:	e5832010 	str	r2, [r3, #16]
800252d0:	e3a03000 	mov	r3, #0
800252d4:	e50b3008 	str	r3, [fp, #-8]
800252d8:	ea000015 	b	80025334 <fork+0x158>
800252dc:	e59f30c4 	ldr	r3, [pc, #196]	; 800253a8 <fork+0x1cc>
800252e0:	e5933000 	ldr	r3, [r3]
800252e4:	e51b2008 	ldr	r2, [fp, #-8]
800252e8:	e282200a 	add	r2, r2, #10
800252ec:	e7933102 	ldr	r3, [r3, r2, lsl #2]
800252f0:	e3530000 	cmp	r3, #0
800252f4:	0a00000b 	beq	80025328 <fork+0x14c>
800252f8:	e59f30a8 	ldr	r3, [pc, #168]	; 800253a8 <fork+0x1cc>
800252fc:	e5933000 	ldr	r3, [r3]
80025300:	e51b2008 	ldr	r2, [fp, #-8]
80025304:	e282200a 	add	r2, r2, #10
80025308:	e7933102 	ldr	r3, [r3, r2, lsl #2]
8002530c:	e1a00003 	mov	r0, r3
80025310:	ebfff4ae 	bl	800225d0 <filedup>
80025314:	e1a01000 	mov	r1, r0
80025318:	e51b300c 	ldr	r3, [fp, #-12]
8002531c:	e51b2008 	ldr	r2, [fp, #-8]
80025320:	e282200a 	add	r2, r2, #10
80025324:	e7831102 	str	r1, [r3, r2, lsl #2]
80025328:	e51b3008 	ldr	r3, [fp, #-8]
8002532c:	e2833001 	add	r3, r3, #1
80025330:	e50b3008 	str	r3, [fp, #-8]
80025334:	e51b3008 	ldr	r3, [fp, #-8]
80025338:	e353000f 	cmp	r3, #15
8002533c:	daffffe6 	ble	800252dc <fork+0x100>
80025340:	e59f3060 	ldr	r3, [pc, #96]	; 800253a8 <fork+0x1cc>
80025344:	e5933000 	ldr	r3, [r3]
80025348:	e5933068 	ldr	r3, [r3, #104]	; 0x68
8002534c:	e1a00003 	mov	r0, r3
80025350:	ebfff776 	bl	80023130 <idup>
80025354:	e1a02000 	mov	r2, r0
80025358:	e51b300c 	ldr	r3, [fp, #-12]
8002535c:	e5832068 	str	r2, [r3, #104]	; 0x68
80025360:	e51b300c 	ldr	r3, [fp, #-12]
80025364:	e5933010 	ldr	r3, [r3, #16]
80025368:	e50b3010 	str	r3, [fp, #-16]
8002536c:	e51b300c 	ldr	r3, [fp, #-12]
80025370:	e3a02003 	mov	r2, #3
80025374:	e5c3200c 	strb	r2, [r3, #12]
80025378:	e51b300c 	ldr	r3, [fp, #-12]
8002537c:	e283006c 	add	r0, r3, #108	; 0x6c
80025380:	e59f3020 	ldr	r3, [pc, #32]	; 800253a8 <fork+0x1cc>
80025384:	e5933000 	ldr	r3, [r3]
80025388:	e283306c 	add	r3, r3, #108	; 0x6c
8002538c:	e3a02010 	mov	r2, #16
80025390:	e1a01003 	mov	r1, r3
80025394:	ebffec2c 	bl	8002044c <safestrcpy>
80025398:	e51b3010 	ldr	r3, [fp, #-16]
8002539c:	e1a00003 	mov	r0, r3
800253a0:	e24bd004 	sub	sp, fp, #4
800253a4:	e8bd8800 	pop	{fp, pc}
800253a8:	800ae61c 	.word	0x800ae61c

800253ac <exit>:
800253ac:	e92d4800 	push	{fp, lr}
800253b0:	e28db004 	add	fp, sp, #4
800253b4:	e24dd008 	sub	sp, sp, #8
800253b8:	e59f3158 	ldr	r3, [pc, #344]	; 80025518 <exit+0x16c>
800253bc:	e5932000 	ldr	r2, [r3]
800253c0:	e59f3154 	ldr	r3, [pc, #340]	; 8002551c <exit+0x170>
800253c4:	e5933000 	ldr	r3, [r3]
800253c8:	e1520003 	cmp	r2, r3
800253cc:	1a000001 	bne	800253d8 <exit+0x2c>
800253d0:	e59f0148 	ldr	r0, [pc, #328]	; 80025520 <exit+0x174>
800253d4:	ebfff1d9 	bl	80021b40 <panic>
800253d8:	e3a03000 	mov	r3, #0
800253dc:	e50b300c 	str	r3, [fp, #-12]
800253e0:	ea000016 	b	80025440 <exit+0x94>
800253e4:	e59f312c 	ldr	r3, [pc, #300]	; 80025518 <exit+0x16c>
800253e8:	e5933000 	ldr	r3, [r3]
800253ec:	e51b200c 	ldr	r2, [fp, #-12]
800253f0:	e282200a 	add	r2, r2, #10
800253f4:	e7933102 	ldr	r3, [r3, r2, lsl #2]
800253f8:	e3530000 	cmp	r3, #0
800253fc:	0a00000c 	beq	80025434 <exit+0x88>
80025400:	e59f3110 	ldr	r3, [pc, #272]	; 80025518 <exit+0x16c>
80025404:	e5933000 	ldr	r3, [r3]
80025408:	e51b200c 	ldr	r2, [fp, #-12]
8002540c:	e282200a 	add	r2, r2, #10
80025410:	e7933102 	ldr	r3, [r3, r2, lsl #2]
80025414:	e1a00003 	mov	r0, r3
80025418:	ebfff485 	bl	80022634 <fileclose>
8002541c:	e59f30f4 	ldr	r3, [pc, #244]	; 80025518 <exit+0x16c>
80025420:	e5933000 	ldr	r3, [r3]
80025424:	e51b200c 	ldr	r2, [fp, #-12]
80025428:	e282200a 	add	r2, r2, #10
8002542c:	e3a01000 	mov	r1, #0
80025430:	e7831102 	str	r1, [r3, r2, lsl #2]
80025434:	e51b300c 	ldr	r3, [fp, #-12]
80025438:	e2833001 	add	r3, r3, #1
8002543c:	e50b300c 	str	r3, [fp, #-12]
80025440:	e51b300c 	ldr	r3, [fp, #-12]
80025444:	e353000f 	cmp	r3, #15
80025448:	daffffe5 	ble	800253e4 <exit+0x38>
8002544c:	e59f30c4 	ldr	r3, [pc, #196]	; 80025518 <exit+0x16c>
80025450:	e5933000 	ldr	r3, [r3]
80025454:	e5933068 	ldr	r3, [r3, #104]	; 0x68
80025458:	e1a00003 	mov	r0, r3
8002545c:	ebfff7cb 	bl	80023390 <iput>
80025460:	e59f30b0 	ldr	r3, [pc, #176]	; 80025518 <exit+0x16c>
80025464:	e5933000 	ldr	r3, [r3]
80025468:	e3a02000 	mov	r2, #0
8002546c:	e5832068 	str	r2, [r3, #104]	; 0x68
80025470:	e59f00ac 	ldr	r0, [pc, #172]	; 80025524 <exit+0x178>
80025474:	eb00025f 	bl	80025df8 <acquire>
80025478:	e59f3098 	ldr	r3, [pc, #152]	; 80025518 <exit+0x16c>
8002547c:	e5933000 	ldr	r3, [r3]
80025480:	e5933014 	ldr	r3, [r3, #20]
80025484:	e1a00003 	mov	r0, r3
80025488:	eb00013f 	bl	8002598c <wakeup1>
8002548c:	e59f3094 	ldr	r3, [pc, #148]	; 80025528 <exit+0x17c>
80025490:	e50b3008 	str	r3, [fp, #-8]
80025494:	ea000014 	b	800254ec <exit+0x140>
80025498:	e51b3008 	ldr	r3, [fp, #-8]
8002549c:	e5932014 	ldr	r2, [r3, #20]
800254a0:	e59f3070 	ldr	r3, [pc, #112]	; 80025518 <exit+0x16c>
800254a4:	e5933000 	ldr	r3, [r3]
800254a8:	e1520003 	cmp	r2, r3
800254ac:	1a00000b 	bne	800254e0 <exit+0x134>
800254b0:	e59f3064 	ldr	r3, [pc, #100]	; 8002551c <exit+0x170>
800254b4:	e5932000 	ldr	r2, [r3]
800254b8:	e51b3008 	ldr	r3, [fp, #-8]
800254bc:	e5832014 	str	r2, [r3, #20]
800254c0:	e51b3008 	ldr	r3, [fp, #-8]
800254c4:	e5d3300c 	ldrb	r3, [r3, #12]
800254c8:	e3530005 	cmp	r3, #5
800254cc:	1a000003 	bne	800254e0 <exit+0x134>
800254d0:	e59f3044 	ldr	r3, [pc, #68]	; 8002551c <exit+0x170>
800254d4:	e5933000 	ldr	r3, [r3]
800254d8:	e1a00003 	mov	r0, r3
800254dc:	eb00012a 	bl	8002598c <wakeup1>
800254e0:	e51b3008 	ldr	r3, [fp, #-8]
800254e4:	e2833080 	add	r3, r3, #128	; 0x80
800254e8:	e50b3008 	str	r3, [fp, #-8]
800254ec:	e51b3008 	ldr	r3, [fp, #-8]
800254f0:	e59f2034 	ldr	r2, [pc, #52]	; 8002552c <exit+0x180>
800254f4:	e1530002 	cmp	r3, r2
800254f8:	3affffe6 	bcc	80025498 <exit+0xec>
800254fc:	e59f3014 	ldr	r3, [pc, #20]	; 80025518 <exit+0x16c>
80025500:	e5933000 	ldr	r3, [r3]
80025504:	e3a02005 	mov	r2, #5
80025508:	e5c3200c 	strb	r2, [r3, #12]
8002550c:	eb000092 	bl	8002575c <sched>
80025510:	e59f0018 	ldr	r0, [pc, #24]	; 80025530 <exit+0x184>
80025514:	ebfff189 	bl	80021b40 <panic>
80025518:	800ae61c 	.word	0x800ae61c
8002551c:	800ae618 	.word	0x800ae618
80025520:	8002a3ac 	.word	0x8002a3ac
80025524:	800ae620 	.word	0x800ae620
80025528:	800ae654 	.word	0x800ae654
8002552c:	800b0654 	.word	0x800b0654
80025530:	8002a3bc 	.word	0x8002a3bc

80025534 <wait>:
80025534:	e92d4800 	push	{fp, lr}
80025538:	e28db004 	add	fp, sp, #4
8002553c:	e24dd010 	sub	sp, sp, #16
80025540:	e59f013c 	ldr	r0, [pc, #316]	; 80025684 <wait+0x150>
80025544:	eb00022b 	bl	80025df8 <acquire>
80025548:	e3a03000 	mov	r3, #0
8002554c:	e50b300c 	str	r3, [fp, #-12]
80025550:	e59f3130 	ldr	r3, [pc, #304]	; 80025688 <wait+0x154>
80025554:	e50b3008 	str	r3, [fp, #-8]
80025558:	ea000030 	b	80025620 <wait+0xec>
8002555c:	e51b3008 	ldr	r3, [fp, #-8]
80025560:	e5932014 	ldr	r2, [r3, #20]
80025564:	e59f3120 	ldr	r3, [pc, #288]	; 8002568c <wait+0x158>
80025568:	e5933000 	ldr	r3, [r3]
8002556c:	e1520003 	cmp	r2, r3
80025570:	1a000026 	bne	80025610 <wait+0xdc>
80025574:	e3a03001 	mov	r3, #1
80025578:	e50b300c 	str	r3, [fp, #-12]
8002557c:	e51b3008 	ldr	r3, [fp, #-8]
80025580:	e5d3300c 	ldrb	r3, [r3, #12]
80025584:	e3530005 	cmp	r3, #5
80025588:	1a000021 	bne	80025614 <wait+0xe0>
8002558c:	e51b3008 	ldr	r3, [fp, #-8]
80025590:	e5933010 	ldr	r3, [r3, #16]
80025594:	e50b3010 	str	r3, [fp, #-16]
80025598:	e51b3008 	ldr	r3, [fp, #-8]
8002559c:	e5933008 	ldr	r3, [r3, #8]
800255a0:	e1a00003 	mov	r0, r3
800255a4:	ebfff012 	bl	800215f4 <free_page>
800255a8:	e51b3008 	ldr	r3, [fp, #-8]
800255ac:	e3a02000 	mov	r2, #0
800255b0:	e5832008 	str	r2, [r3, #8]
800255b4:	e51b3008 	ldr	r3, [fp, #-8]
800255b8:	e5933004 	ldr	r3, [r3, #4]
800255bc:	e1a00003 	mov	r0, r3
800255c0:	eb000d7b 	bl	80028bb4 <freevm>
800255c4:	e51b3008 	ldr	r3, [fp, #-8]
800255c8:	e3a02000 	mov	r2, #0
800255cc:	e5c3200c 	strb	r2, [r3, #12]
800255d0:	e51b3008 	ldr	r3, [fp, #-8]
800255d4:	e3a02000 	mov	r2, #0
800255d8:	e5832010 	str	r2, [r3, #16]
800255dc:	e51b3008 	ldr	r3, [fp, #-8]
800255e0:	e3a02000 	mov	r2, #0
800255e4:	e5832014 	str	r2, [r3, #20]
800255e8:	e51b3008 	ldr	r3, [fp, #-8]
800255ec:	e3a02000 	mov	r2, #0
800255f0:	e5c3206c 	strb	r2, [r3, #108]	; 0x6c
800255f4:	e51b3008 	ldr	r3, [fp, #-8]
800255f8:	e3a02000 	mov	r2, #0
800255fc:	e5832024 	str	r2, [r3, #36]	; 0x24
80025600:	e59f007c 	ldr	r0, [pc, #124]	; 80025684 <wait+0x150>
80025604:	eb000206 	bl	80025e24 <release>
80025608:	e51b3010 	ldr	r3, [fp, #-16]
8002560c:	ea000019 	b	80025678 <wait+0x144>
80025610:	e1a00000 	nop			; (mov r0, r0)
80025614:	e51b3008 	ldr	r3, [fp, #-8]
80025618:	e2833080 	add	r3, r3, #128	; 0x80
8002561c:	e50b3008 	str	r3, [fp, #-8]
80025620:	e51b3008 	ldr	r3, [fp, #-8]
80025624:	e59f2064 	ldr	r2, [pc, #100]	; 80025690 <wait+0x15c>
80025628:	e1530002 	cmp	r3, r2
8002562c:	3affffca 	bcc	8002555c <wait+0x28>
80025630:	e51b300c 	ldr	r3, [fp, #-12]
80025634:	e3530000 	cmp	r3, #0
80025638:	0a000004 	beq	80025650 <wait+0x11c>
8002563c:	e59f3048 	ldr	r3, [pc, #72]	; 8002568c <wait+0x158>
80025640:	e5933000 	ldr	r3, [r3]
80025644:	e5933024 	ldr	r3, [r3, #36]	; 0x24
80025648:	e3530000 	cmp	r3, #0
8002564c:	0a000003 	beq	80025660 <wait+0x12c>
80025650:	e59f002c 	ldr	r0, [pc, #44]	; 80025684 <wait+0x150>
80025654:	eb0001f2 	bl	80025e24 <release>
80025658:	e3e03000 	mvn	r3, #0
8002565c:	ea000005 	b	80025678 <wait+0x144>
80025660:	e59f3024 	ldr	r3, [pc, #36]	; 8002568c <wait+0x158>
80025664:	e5933000 	ldr	r3, [r3]
80025668:	e59f1014 	ldr	r1, [pc, #20]	; 80025684 <wait+0x150>
8002566c:	e1a00003 	mov	r0, r3
80025670:	eb000091 	bl	800258bc <sleep>
80025674:	eaffffb3 	b	80025548 <wait+0x14>
80025678:	e1a00003 	mov	r0, r3
8002567c:	e24bd004 	sub	sp, fp, #4
80025680:	e8bd8800 	pop	{fp, pc}
80025684:	800ae620 	.word	0x800ae620
80025688:	800ae654 	.word	0x800ae654
8002568c:	800ae61c 	.word	0x800ae61c
80025690:	800b0654 	.word	0x800b0654

80025694 <scheduler>:
80025694:	e92d4800 	push	{fp, lr}
80025698:	e28db004 	add	fp, sp, #4
8002569c:	e24dd008 	sub	sp, sp, #8
800256a0:	ebffebb2 	bl	80020570 <sti>
800256a4:	e59f009c 	ldr	r0, [pc, #156]	; 80025748 <scheduler+0xb4>
800256a8:	eb0001d2 	bl	80025df8 <acquire>
800256ac:	e59f3098 	ldr	r3, [pc, #152]	; 8002574c <scheduler+0xb8>
800256b0:	e50b3008 	str	r3, [fp, #-8]
800256b4:	ea00001c 	b	8002572c <scheduler+0x98>
800256b8:	e51b3008 	ldr	r3, [fp, #-8]
800256bc:	e5d3300c 	ldrb	r3, [r3, #12]
800256c0:	e3530003 	cmp	r3, #3
800256c4:	1a000014 	bne	8002571c <scheduler+0x88>
800256c8:	e59f2080 	ldr	r2, [pc, #128]	; 80025750 <scheduler+0xbc>
800256cc:	e51b3008 	ldr	r3, [fp, #-8]
800256d0:	e5823000 	str	r3, [r2]
800256d4:	e51b0008 	ldr	r0, [fp, #-8]
800256d8:	eb000c29 	bl	80028784 <switchuvm>
800256dc:	e51b3008 	ldr	r3, [fp, #-8]
800256e0:	e3a02004 	mov	r2, #4
800256e4:	e5c3200c 	strb	r2, [r3, #12]
800256e8:	e59f3064 	ldr	r3, [pc, #100]	; 80025754 <scheduler+0xc0>
800256ec:	e5933000 	ldr	r3, [r3]
800256f0:	e2832004 	add	r2, r3, #4
800256f4:	e59f3054 	ldr	r3, [pc, #84]	; 80025750 <scheduler+0xbc>
800256f8:	e5933000 	ldr	r3, [r3]
800256fc:	e593301c 	ldr	r3, [r3, #28]
80025700:	e1a01003 	mov	r1, r3
80025704:	e1a00002 	mov	r0, r2
80025708:	eb0001da 	bl	80025e78 <swtch>
8002570c:	e59f303c 	ldr	r3, [pc, #60]	; 80025750 <scheduler+0xbc>
80025710:	e3a02000 	mov	r2, #0
80025714:	e5832000 	str	r2, [r3]
80025718:	ea000000 	b	80025720 <scheduler+0x8c>
8002571c:	e1a00000 	nop			; (mov r0, r0)
80025720:	e51b3008 	ldr	r3, [fp, #-8]
80025724:	e2833080 	add	r3, r3, #128	; 0x80
80025728:	e50b3008 	str	r3, [fp, #-8]
8002572c:	e51b3008 	ldr	r3, [fp, #-8]
80025730:	e59f2020 	ldr	r2, [pc, #32]	; 80025758 <scheduler+0xc4>
80025734:	e1530002 	cmp	r3, r2
80025738:	3affffde 	bcc	800256b8 <scheduler+0x24>
8002573c:	e59f0004 	ldr	r0, [pc, #4]	; 80025748 <scheduler+0xb4>
80025740:	eb0001b7 	bl	80025e24 <release>
80025744:	eaffffd5 	b	800256a0 <scheduler+0xc>
80025748:	800ae620 	.word	0x800ae620
8002574c:	800ae654 	.word	0x800ae654
80025750:	800ae61c 	.word	0x800ae61c
80025754:	800ae52c 	.word	0x800ae52c
80025758:	800b0654 	.word	0x800b0654

8002575c <sched>:
8002575c:	e92d4800 	push	{fp, lr}
80025760:	e28db004 	add	fp, sp, #4
80025764:	e24dd008 	sub	sp, sp, #8
80025768:	e59f00b4 	ldr	r0, [pc, #180]	; 80025824 <sched+0xc8>
8002576c:	eb0001b7 	bl	80025e50 <holding>
80025770:	e1a03000 	mov	r3, r0
80025774:	e3530000 	cmp	r3, #0
80025778:	1a000001 	bne	80025784 <sched+0x28>
8002577c:	e59f00a4 	ldr	r0, [pc, #164]	; 80025828 <sched+0xcc>
80025780:	ebfff0ee 	bl	80021b40 <panic>
80025784:	e59f30a0 	ldr	r3, [pc, #160]	; 8002582c <sched+0xd0>
80025788:	e5933000 	ldr	r3, [r3]
8002578c:	e593300c 	ldr	r3, [r3, #12]
80025790:	e3530001 	cmp	r3, #1
80025794:	0a000001 	beq	800257a0 <sched+0x44>
80025798:	e59f0090 	ldr	r0, [pc, #144]	; 80025830 <sched+0xd4>
8002579c:	ebfff0e7 	bl	80021b40 <panic>
800257a0:	e59f308c 	ldr	r3, [pc, #140]	; 80025834 <sched+0xd8>
800257a4:	e5933000 	ldr	r3, [r3]
800257a8:	e5d3300c 	ldrb	r3, [r3, #12]
800257ac:	e3530004 	cmp	r3, #4
800257b0:	1a000001 	bne	800257bc <sched+0x60>
800257b4:	e59f007c 	ldr	r0, [pc, #124]	; 80025838 <sched+0xdc>
800257b8:	ebfff0e0 	bl	80021b40 <panic>
800257bc:	ebffeb89 	bl	800205e8 <int_enabled>
800257c0:	e1a03000 	mov	r3, r0
800257c4:	e3530000 	cmp	r3, #0
800257c8:	0a000001 	beq	800257d4 <sched+0x78>
800257cc:	e59f0068 	ldr	r0, [pc, #104]	; 8002583c <sched+0xe0>
800257d0:	ebfff0da 	bl	80021b40 <panic>
800257d4:	e59f3050 	ldr	r3, [pc, #80]	; 8002582c <sched+0xd0>
800257d8:	e5933000 	ldr	r3, [r3]
800257dc:	e5933010 	ldr	r3, [r3, #16]
800257e0:	e50b3008 	str	r3, [fp, #-8]
800257e4:	e59f3048 	ldr	r3, [pc, #72]	; 80025834 <sched+0xd8>
800257e8:	e5933000 	ldr	r3, [r3]
800257ec:	e283201c 	add	r2, r3, #28
800257f0:	e59f3034 	ldr	r3, [pc, #52]	; 8002582c <sched+0xd0>
800257f4:	e5933000 	ldr	r3, [r3]
800257f8:	e5933004 	ldr	r3, [r3, #4]
800257fc:	e1a01003 	mov	r1, r3
80025800:	e1a00002 	mov	r0, r2
80025804:	eb00019b 	bl	80025e78 <swtch>
80025808:	e59f301c 	ldr	r3, [pc, #28]	; 8002582c <sched+0xd0>
8002580c:	e5933000 	ldr	r3, [r3]
80025810:	e51b2008 	ldr	r2, [fp, #-8]
80025814:	e5832010 	str	r2, [r3, #16]
80025818:	e1a00000 	nop			; (mov r0, r0)
8002581c:	e24bd004 	sub	sp, fp, #4
80025820:	e8bd8800 	pop	{fp, pc}
80025824:	800ae620 	.word	0x800ae620
80025828:	8002a3c8 	.word	0x8002a3c8
8002582c:	800ae52c 	.word	0x800ae52c
80025830:	8002a3dc 	.word	0x8002a3dc
80025834:	800ae61c 	.word	0x800ae61c
80025838:	8002a3e8 	.word	0x8002a3e8
8002583c:	8002a3f8 	.word	0x8002a3f8

80025840 <yield>:
80025840:	e92d4800 	push	{fp, lr}
80025844:	e28db004 	add	fp, sp, #4
80025848:	e59f0024 	ldr	r0, [pc, #36]	; 80025874 <yield+0x34>
8002584c:	eb000169 	bl	80025df8 <acquire>
80025850:	e59f3020 	ldr	r3, [pc, #32]	; 80025878 <yield+0x38>
80025854:	e5933000 	ldr	r3, [r3]
80025858:	e3a02003 	mov	r2, #3
8002585c:	e5c3200c 	strb	r2, [r3, #12]
80025860:	ebffffbd 	bl	8002575c <sched>
80025864:	e59f0008 	ldr	r0, [pc, #8]	; 80025874 <yield+0x34>
80025868:	eb00016d 	bl	80025e24 <release>
8002586c:	e1a00000 	nop			; (mov r0, r0)
80025870:	e8bd8800 	pop	{fp, pc}
80025874:	800ae620 	.word	0x800ae620
80025878:	800ae61c 	.word	0x800ae61c

8002587c <forkret>:
8002587c:	e92d4800 	push	{fp, lr}
80025880:	e28db004 	add	fp, sp, #4
80025884:	e59f0028 	ldr	r0, [pc, #40]	; 800258b4 <forkret+0x38>
80025888:	eb000165 	bl	80025e24 <release>
8002588c:	e59f3024 	ldr	r3, [pc, #36]	; 800258b8 <forkret+0x3c>
80025890:	e5933000 	ldr	r3, [r3]
80025894:	e3530000 	cmp	r3, #0
80025898:	0a000003 	beq	800258ac <forkret+0x30>
8002589c:	e59f3014 	ldr	r3, [pc, #20]	; 800258b8 <forkret+0x3c>
800258a0:	e3a02000 	mov	r2, #0
800258a4:	e5832000 	str	r2, [r3]
800258a8:	ebfffa1f 	bl	8002412c <initlog>
800258ac:	e1a00000 	nop			; (mov r0, r0)
800258b0:	e8bd8800 	pop	{fp, pc}
800258b4:	800ae620 	.word	0x800ae620
800258b8:	8002b018 	.word	0x8002b018

800258bc <sleep>:
800258bc:	e92d4800 	push	{fp, lr}
800258c0:	e28db004 	add	fp, sp, #4
800258c4:	e24dd008 	sub	sp, sp, #8
800258c8:	e50b0008 	str	r0, [fp, #-8]
800258cc:	e50b100c 	str	r1, [fp, #-12]
800258d0:	e59f30a4 	ldr	r3, [pc, #164]	; 8002597c <sleep+0xc0>
800258d4:	e5933000 	ldr	r3, [r3]
800258d8:	e3530000 	cmp	r3, #0
800258dc:	1a000001 	bne	800258e8 <sleep+0x2c>
800258e0:	e59f0098 	ldr	r0, [pc, #152]	; 80025980 <sleep+0xc4>
800258e4:	ebfff095 	bl	80021b40 <panic>
800258e8:	e51b300c 	ldr	r3, [fp, #-12]
800258ec:	e3530000 	cmp	r3, #0
800258f0:	1a000001 	bne	800258fc <sleep+0x40>
800258f4:	e59f0088 	ldr	r0, [pc, #136]	; 80025984 <sleep+0xc8>
800258f8:	ebfff090 	bl	80021b40 <panic>
800258fc:	e51b300c 	ldr	r3, [fp, #-12]
80025900:	e59f2080 	ldr	r2, [pc, #128]	; 80025988 <sleep+0xcc>
80025904:	e1530002 	cmp	r3, r2
80025908:	0a000003 	beq	8002591c <sleep+0x60>
8002590c:	e59f0074 	ldr	r0, [pc, #116]	; 80025988 <sleep+0xcc>
80025910:	eb000138 	bl	80025df8 <acquire>
80025914:	e51b000c 	ldr	r0, [fp, #-12]
80025918:	eb000141 	bl	80025e24 <release>
8002591c:	e59f3058 	ldr	r3, [pc, #88]	; 8002597c <sleep+0xc0>
80025920:	e5933000 	ldr	r3, [r3]
80025924:	e51b2008 	ldr	r2, [fp, #-8]
80025928:	e5832020 	str	r2, [r3, #32]
